00B00143  add         byte ptr [eax],al  
00B00145  add         byte ptr [eax],al  
00B00147  add         byte ptr [eax],al  
00B00149  add         byte ptr [eax],al  
00B0014B  add         byte ptr [eax],al  
00B0014D  add         byte ptr [eax],al  
00B0014F  add         byte ptr [eax],al  
00B00151  add         byte ptr [eax],al  
00B00153  add         byte ptr [eax],al  
00B00155  add         byte ptr [eax],al  
00B00157  add         byte ptr [eax],al  
00B00159  add         byte ptr [eax],al  
00B0015B  add         byte ptr [eax],al  
00B0015D  add         byte ptr [eax],al  
00B0015F  add         byte ptr [eax],al  
00B00161  add         byte ptr [eax],al  
00B00163  add         byte ptr [eax],al  
00B00165  add         byte ptr [eax],al  
00B00167  add         byte ptr [eax],al  
00B00169  add         byte ptr [eax],al  
00B0016B  add         byte ptr [eax],al  
00B0016D  add         byte ptr [eax],al  
00B0016F  add         byte ptr [eax],al  
00B00171  add         byte ptr [eax],al  
00B00173  add         byte ptr [eax],al  
00B00175  add         byte ptr [eax],al  
00B00177  add         byte ptr [eax],al  
00B00179  add         byte ptr [eax],al  
00B0017B  add         byte ptr [eax],al  
00B0017D  add         byte ptr [eax],al  
00B0017F  add         byte ptr [eax],al  
00B00181  add         byte ptr [eax],al  
00B00183  add         byte ptr [eax],al  
00B00185  add         byte ptr [eax],al  
00B00187  add         byte ptr [eax],al  
00B00189  add         byte ptr [eax],al  
00B0018B  add         byte ptr [eax],al  
00B0018D  add         byte ptr [eax],al  
00B0018F  add         byte ptr [eax],al  
00B00191  add         byte ptr [eax],al  
00B00193  add         byte ptr [eax],al  
00B00195  add         byte ptr [eax],al  
00B00197  add         byte ptr [eax],al  
00B00199  add         byte ptr [eax],al  
00B0019B  add         byte ptr [eax],al  
00B0019D  add         byte ptr [eax],al  
00B0019F  add         byte ptr [eax],al  
00B001A1  add         byte ptr [eax],al  
00B001A3  add         byte ptr [eax],al  
00B001A5  add         byte ptr [eax],al  
00B001A7  add         byte ptr [eax],al  
00B001A9  add         byte ptr [eax],al  
00B001AB  add         byte ptr [eax],al  
00B001AD  add         byte ptr [eax],al  
00B001AF  add         byte ptr [eax],al  
00B001B1  add         byte ptr [eax],al  
00B001B3  add         byte ptr [eax],al  
00B001B5  add         byte ptr [eax],al  
00B001B7  add         byte ptr [eax],al  
00B001B9  add         byte ptr [eax],al  
00B001BB  add         byte ptr [eax],al  
00B001BD  add         byte ptr [eax],al  
00B001BF  add         byte ptr [eax],al  
00B001C1  add         byte ptr [eax],al  
00B001C3  add         byte ptr [eax],al  
00B001C5  add         byte ptr [eax],al  
00B001C7  add         byte ptr [eax],al  
00B001C9  add         byte ptr [eax],al  
00B001CB  add         byte ptr [eax],al  
00B001CD  add         byte ptr [eax],al  
00B001CF  add         byte ptr [eax],al  
00B001D1  add         byte ptr [eax],al  
00B001D3  add         byte ptr [eax],al  
00B001D5  add         byte ptr [eax],al  
00B001D7  add         byte ptr [eax],al  
00B001D9  add         byte ptr [eax],al  
00B001DB  add         byte ptr [eax],al  
00B001DD  add         byte ptr [eax],al  
00B001DF  add         byte ptr [eax],al  
00B001E1  add         byte ptr [eax],al  
00B001E3  add         byte ptr [eax],al  
00B001E5  add         byte ptr [eax],al  
00B001E7  add         byte ptr [eax],al  
00B001E9  add         byte ptr [eax],al  
00B001EB  add         byte ptr [eax],al  
00B001ED  add         byte ptr [eax],al  
00B001EF  add         byte ptr [eax],al  
00B001F1  add         byte ptr [eax],al  
00B001F3  add         byte ptr [eax],al  
00B001F5  add         byte ptr [eax],al  
00B001F7  add         byte ptr [eax],al  
00B001F9  add         byte ptr [eax],al  
00B001FB  add         byte ptr [eax],al  
00B001FD  add         byte ptr [eax],al  
00B001FF  add         byte ptr [eax],al  
00B00201  add         byte ptr [eax],al  
00B00203  add         byte ptr [eax],al  
00B00205  add         byte ptr [eax],al  
00B00207  add         byte ptr [eax],al  
00B00209  add         byte ptr [eax],al  
00B0020B  add         byte ptr [eax],al  
00B0020D  add         byte ptr [eax],al  
00B0020F  add         byte ptr [eax],al  
00B00211  add         byte ptr [eax],al  
00B00213  add         byte ptr [eax],al  
00B00215  add         byte ptr [eax],al  
00B00217  add         byte ptr [eax],al  
00B00219  add         byte ptr [eax],al  
00B0021B  add         byte ptr [eax],al  
00B0021D  add         byte ptr [eax],al  
00B0021F  add         byte ptr [eax],al  
00B00221  add         byte ptr [eax],al  
00B00223  add         byte ptr [eax],al  
00B00225  add         byte ptr [eax],al  
00B00227  add         byte ptr [eax],al  
00B00229  add         byte ptr [eax],al  
00B0022B  add         byte ptr [eax],al  
00B0022D  add         byte ptr [eax],al  
00B0022F  add         byte ptr [eax],al  
00B00231  add         byte ptr [eax],al  
00B00233  add         byte ptr [eax],al  
00B00235  add         byte ptr [eax],al  
00B00237  add         byte ptr [eax],al  
00B00239  add         byte ptr [eax],al  
00B0023B  add         byte ptr [eax],al  
00B0023D  add         byte ptr [eax],al  
00B0023F  add         byte ptr [eax],al  
00B00241  add         byte ptr [eax],al  
00B00243  add         byte ptr [eax],al  
00B00245  add         byte ptr [eax],al  
00B00247  add         byte ptr [eax],al  
00B00249  add         byte ptr [eax],al  
00B0024B  add         byte ptr [eax],al  
00B0024D  add         byte ptr [eax],al  
00B0024F  add         byte ptr [eax],al  
00B00251  add         byte ptr [eax],al  
00B00253  add         byte ptr [eax],al  
00B00255  add         byte ptr [eax],al  
00B00257  add         byte ptr [eax],al  
00B00259  add         byte ptr [eax],al  
00B0025B  add         byte ptr [eax],al  
00B0025D  add         byte ptr [eax],al  
00B0025F  add         byte ptr [eax],al  
00B00261  add         byte ptr [eax],al  
00B00263  add         byte ptr [eax],al  
00B00265  add         byte ptr [eax],al  
00B00267  add         byte ptr [eax],al  
00B00269  add         byte ptr [eax],al  
00B0026B  add         byte ptr [eax],al  
00B0026D  add         byte ptr [eax],al  
00B0026F  add         byte ptr [eax],al  
00B00271  add         byte ptr [eax],al  
00B00273  add         byte ptr [eax],al  
00B00275  add         byte ptr [eax],al  
00B00277  add         byte ptr [eax],al  
00B00279  add         byte ptr [eax],al  
00B0027B  add         byte ptr [eax],al  
00B0027D  add         byte ptr [eax],al  
00B0027F  add         byte ptr [eax],al  
00B00281  add         byte ptr [eax],al  
00B00283  add         byte ptr [eax],al  
00B00285  add         byte ptr [eax],al  
00B00287  add         byte ptr [eax],al  
00B00289  add         byte ptr [eax],al  
00B0028B  add         byte ptr [eax],al  
00B0028D  add         byte ptr [eax],al  
00B0028F  add         byte ptr [eax],al  
00B00291  add         byte ptr [eax],al  
00B00293  add         byte ptr [eax],al  
00B00295  add         byte ptr [eax],al  
00B00297  add         byte ptr [eax],al  
00B00299  add         byte ptr [eax],al  
00B0029B  add         byte ptr [eax],al  
00B0029D  add         byte ptr [eax],al  
00B0029F  add         byte ptr [eax],al  
00B002A1  add         byte ptr [eax],al  
00B002A3  add         byte ptr [eax],al  
00B002A5  add         byte ptr [eax],al  
00B002A7  add         byte ptr [eax],al  
00B002A9  add         byte ptr [eax],al  
00B002AB  add         byte ptr [eax],al  
00B002AD  add         byte ptr [eax],al  
00B002AF  add         byte ptr [eax],al  
00B002B1  add         byte ptr [eax],al  
00B002B3  add         byte ptr [eax],al  
00B002B5  add         byte ptr [eax],al  
00B002B7  add         byte ptr [eax],al  
00B002B9  add         byte ptr [eax],al  
00B002BB  add         byte ptr [eax],al  
00B002BD  add         byte ptr [eax],al  
00B002BF  add         byte ptr [eax],al  
00B002C1  add         byte ptr [eax],al  
00B002C3  add         byte ptr [eax],al  
00B002C5  add         byte ptr [eax],al  
00B002C7  add         byte ptr [eax],al  
00B002C9  add         byte ptr [eax],al  
00B002CB  add         byte ptr [eax],al  
00B002CD  add         byte ptr [eax],al  
00B002CF  add         byte ptr [eax],al  
00B002D1  add         byte ptr [eax],al  
00B002D3  add         byte ptr [eax],al  
00B002D5  add         byte ptr [eax],al  
00B002D7  add         byte ptr [eax],al  
00B002D9  add         byte ptr [eax],al  
00B002DB  add         byte ptr [eax],al  
00B002DD  add         byte ptr [eax],al  
00B002DF  add         byte ptr [eax],al  
00B002E1  add         byte ptr [eax],al  
00B002E3  add         byte ptr [eax],al  
00B002E5  add         byte ptr [eax],al  
00B002E7  add         byte ptr [eax],al  
00B002E9  add         byte ptr [eax],al  
00B002EB  add         byte ptr [eax],al  
00B002ED  add         byte ptr [eax],al  
00B002EF  add         byte ptr [eax],al  
00B002F1  add         byte ptr [eax],al  
00B002F3  add         byte ptr [eax],al  
00B002F5  add         byte ptr [eax],al  
00B002F7  add         byte ptr [eax],al  
00B002F9  add         byte ptr [eax],al  
00B002FB  add         byte ptr [eax],al  
00B002FD  add         byte ptr [eax],al  
00B002FF  add         byte ptr [eax],al  
00B00301  add         byte ptr [eax],al  
00B00303  add         byte ptr [eax],al  
00B00305  add         byte ptr [eax],al  
00B00307  add         byte ptr [eax],al  
00B00309  add         byte ptr [eax],al  
00B0030B  add         byte ptr [eax],al  
00B0030D  add         byte ptr [eax],al  
00B0030F  add         byte ptr [eax],al  
00B00311  add         byte ptr [eax],al  
00B00313  add         byte ptr [eax],al  
00B00315  add         byte ptr [eax],al  
00B00317  add         byte ptr [eax],al  
00B00319  add         byte ptr [eax],al  
00B0031B  add         byte ptr [eax],al  
00B0031D  add         byte ptr [eax],al  
00B0031F  add         byte ptr [eax],al  
00B00321  add         byte ptr [eax],al  
00B00323  add         byte ptr [eax],al  
00B00325  add         byte ptr [eax],al  
00B00327  add         byte ptr [eax],al  
00B00329  add         byte ptr [eax],al  
00B0032B  add         byte ptr [eax],al  
00B0032D  add         byte ptr [eax],al  
00B0032F  add         byte ptr [eax],al  
00B00331  add         byte ptr [eax],al  
00B00333  add         byte ptr [eax],al  
00B00335  add         byte ptr [eax],al  
00B00337  add         byte ptr [eax],al  
00B00339  add         byte ptr [eax],al  
00B0033B  add         byte ptr [eax],al  
00B0033D  add         byte ptr [eax],al  
00B0033F  add         byte ptr [eax],al  
00B00341  add         byte ptr [eax],al  
00B00343  add         byte ptr [eax],al  
00B00345  add         byte ptr [eax],al  
00B00347  add         byte ptr [eax],al  
00B00349  add         byte ptr [eax],al  
00B0034B  add         byte ptr [eax],al  
00B0034D  add         byte ptr [eax],al  
00B0034F  add         byte ptr [eax],al  
00B00351  add         byte ptr [eax],al  
00B00353  add         byte ptr [eax],al  
00B00355  add         byte ptr [eax],al  
00B00357  add         byte ptr [eax],al  
00B00359  add         byte ptr [eax],al  
00B0035B  add         byte ptr [eax],al  
00B0035D  add         byte ptr [eax],al  
00B0035F  add         byte ptr [eax],al  
00B00361  add         byte ptr [eax],al  
00B00363  add         byte ptr [eax],al  
00B00365  add         byte ptr [eax],al  
00B00367  add         byte ptr [eax],al  
00B00369  add         byte ptr [eax],al  
00B0036B  add         byte ptr [eax],al  
00B0036D  add         byte ptr [eax],al  
00B0036F  add         byte ptr [eax],al  
00B00371  add         byte ptr [eax],al  
00B00373  add         byte ptr [eax],al  
00B00375  add         byte ptr [eax],al  
00B00377  add         byte ptr [eax],al  
00B00379  add         byte ptr [eax],al  
00B0037B  add         byte ptr [eax],al  
00B0037D  add         byte ptr [eax],al  
00B0037F  add         byte ptr [eax],al  
00B00381  add         byte ptr [eax],al  
00B00383  add         byte ptr [eax],al  
00B00385  add         byte ptr [eax],al  
00B00387  add         byte ptr [eax],al  
00B00389  add         byte ptr [eax],al  
00B0038B  add         byte ptr [eax],al  
00B0038D  add         byte ptr [eax],al  
00B0038F  add         byte ptr [eax],al  
00B00391  add         byte ptr [eax],al  
00B00393  add         byte ptr [eax],al  
00B00395  add         byte ptr [eax],al  
00B00397  add         byte ptr [eax],al  
00B00399  add         byte ptr [eax],al  
00B0039B  add         byte ptr [eax],al  
00B0039D  add         byte ptr [eax],al  
00B0039F  add         byte ptr [eax],al  
00B003A1  add         byte ptr [eax],al  
00B003A3  add         byte ptr [eax],al  
00B003A5  add         byte ptr [eax],al  
00B003A7  add         byte ptr [eax],al  
00B003A9  add         byte ptr [eax],al  
00B003AB  add         byte ptr [eax],al  
00B003AD  add         byte ptr [eax],al  
00B003AF  add         byte ptr [eax],al  
00B003B1  add         byte ptr [eax],al  
00B003B3  add         byte ptr [eax],al  
00B003B5  add         byte ptr [eax],al  
00B003B7  add         byte ptr [eax],al  
00B003B9  add         byte ptr [eax],al  
00B003BB  add         byte ptr [eax],al  
00B003BD  add         byte ptr [eax],al  
00B003BF  add         byte ptr [eax],al  
00B003C1  add         byte ptr [eax],al  
00B003C3  add         byte ptr [eax],al  
00B003C5  add         byte ptr [eax],al  
00B003C7  add         byte ptr [eax],al  
00B003C9  add         byte ptr [eax],al  
00B003CB  add         byte ptr [eax],al  
00B003CD  add         byte ptr [eax],al  
00B003CF  add         byte ptr [eax],al  
00B003D1  add         byte ptr [eax],al  
00B003D3  add         byte ptr [eax],al  
00B003D5  add         byte ptr [eax],al  
00B003D7  add         byte ptr [eax],al  
00B003D9  add         byte ptr [eax],al  
00B003DB  add         byte ptr [eax],al  
00B003DD  add         byte ptr [eax],al  
00B003DF  add         byte ptr [eax],al  
00B003E1  add         byte ptr [eax],al  
00B003E3  add         byte ptr [eax],al  
00B003E5  add         byte ptr [eax],al  
00B003E7  add         byte ptr [eax],al  
00B003E9  add         byte ptr [eax],al  
00B003EB  add         byte ptr [eax],al  
00B003ED  add         byte ptr [eax],al  
00B003EF  add         byte ptr [eax],al  
00B003F1  add         byte ptr [eax],al  
00B003F3  add         byte ptr [eax],al  
00B003F5  add         byte ptr [eax],al  
00B003F7  add         byte ptr [eax],al  
00B003F9  add         byte ptr [eax],al  
00B003FB  add         byte ptr [eax],al  
00B003FD  add         byte ptr [eax],al  
00B003FF  add         byte ptr [eax],al  
00B00401  add         byte ptr [eax],al  
00B00403  add         byte ptr [eax],al  
00B00405  add         byte ptr [eax],al  
00B00407  add         byte ptr [eax],al  
00B00409  add         byte ptr [eax],al  
00B0040B  add         byte ptr [eax],al  
00B0040D  add         byte ptr [eax],al  
00B0040F  add         byte ptr [eax],al  
00B00411  add         byte ptr [eax],al  
00B00413  add         byte ptr [eax],al  
00B00415  add         byte ptr [eax],al  
00B00417  add         byte ptr [eax],al  
00B00419  add         byte ptr [eax],al  
00B0041B  add         byte ptr [eax],al  
00B0041D  add         byte ptr [eax],al  
00B0041F  add         byte ptr [eax],al  
00B00421  add         byte ptr [eax],al  
00B00423  add         byte ptr [eax],al  
00B00425  add         byte ptr [eax],al  
00B00427  add         byte ptr [eax],al  
00B00429  add         byte ptr [eax],al  
00B0042B  add         byte ptr [eax],al  
00B0042D  add         byte ptr [eax],al  
00B0042F  add         byte ptr [eax],al  
00B00431  add         byte ptr [eax],al  
00B00433  add         byte ptr [eax],al  
00B00435  add         byte ptr [eax],al  
00B00437  add         byte ptr [eax],al  
00B00439  add         byte ptr [eax],al  
00B0043B  add         byte ptr [eax],al  
00B0043D  add         byte ptr [eax],al  
00B0043F  add         byte ptr [eax],al  
00B00441  add         byte ptr [eax],al  
00B00443  add         byte ptr [eax],al  
00B00445  add         byte ptr [eax],al  
00B00447  add         byte ptr [eax],al  
00B00449  add         byte ptr [eax],al  
00B0044B  add         byte ptr [eax],al  
00B0044D  add         byte ptr [eax],al  
00B0044F  add         byte ptr [eax],al  
00B00451  add         byte ptr [eax],al  
00B00453  add         byte ptr [eax],al  
00B00455  add         byte ptr [eax],al  
00B00457  add         byte ptr [eax],al  
00B00459  add         byte ptr [eax],al  
00B0045B  add         byte ptr [eax],al  
00B0045D  add         byte ptr [eax],al  
00B0045F  add         byte ptr [eax],al  
00B00461  add         byte ptr [eax],al  
00B00463  add         byte ptr [eax],al  
00B00465  add         byte ptr [eax],al  
00B00467  add         byte ptr [eax],al  
00B00469  add         byte ptr [eax],al  
00B0046B  add         byte ptr [eax],al  
00B0046D  add         byte ptr [eax],al  
00B0046F  add         byte ptr [eax],al  
00B00471  add         byte ptr [eax],al  
00B00473  add         byte ptr [eax],al  
00B00475  add         byte ptr [eax],al  
00B00477  add         byte ptr [eax],al  
00B00479  add         byte ptr [eax],al  
00B0047B  add         byte ptr [eax],al  
00B0047D  add         byte ptr [eax],al  
00B0047F  add         byte ptr [eax],al  
00B00481  add         byte ptr [eax],al  
00B00483  add         byte ptr [eax],al  
00B00485  add         byte ptr [eax],al  
00B00487  add         byte ptr [eax],al  
00B00489  add         byte ptr [eax],al  
00B0048B  add         byte ptr [eax],al  
00B0048D  add         byte ptr [eax],al  
00B0048F  add         byte ptr [eax],al  
00B00491  add         byte ptr [eax],al  
00B00493  add         byte ptr [eax],al  
00B00495  add         byte ptr [eax],al  
00B00497  add         byte ptr [eax],al  
00B00499  add         byte ptr [eax],al  
00B0049B  add         byte ptr [eax],al  
00B0049D  add         byte ptr [eax],al  
00B0049F  add         byte ptr [eax],al  
00B004A1  add         byte ptr [eax],al  
00B004A3  add         byte ptr [eax],al  
00B004A5  add         byte ptr [eax],al  
00B004A7  add         byte ptr [eax],al  
00B004A9  add         byte ptr [eax],al  
00B004AB  add         byte ptr [eax],al  
00B004AD  add         byte ptr [eax],al  
00B004AF  add         byte ptr [eax],al  
00B004B1  add         byte ptr [eax],al  
00B004B3  add         byte ptr [eax],al  
00B004B5  add         byte ptr [eax],al  
00B004B7  add         byte ptr [eax],al  
00B004B9  add         byte ptr [eax],al  
00B004BB  add         byte ptr [eax],al  
00B004BD  add         byte ptr [eax],al  
00B004BF  add         byte ptr [eax],al  
00B004C1  add         byte ptr [eax],al  
00B004C3  add         byte ptr [eax],al  
00B004C5  add         byte ptr [eax],al  
00B004C7  add         byte ptr [eax],al  
00B004C9  add         byte ptr [eax],al  
00B004CB  add         byte ptr [eax],al  
00B004CD  add         byte ptr [eax],al  
00B004CF  add         byte ptr [eax],al  
00B004D1  add         byte ptr [eax],al  
00B004D3  add         byte ptr [eax],al  
00B004D5  add         byte ptr [eax],al  
00B004D7  add         byte ptr [eax],al  
00B004D9  add         byte ptr [eax],al  
00B004DB  add         byte ptr [eax],al  
00B004DD  add         byte ptr [eax],al  
00B004DF  add         byte ptr [eax],al  
00B004E1  add         byte ptr [eax],al  
00B004E3  add         byte ptr [eax],al  
00B004E5  add         byte ptr [eax],al  
00B004E7  add         byte ptr [eax],al  
00B004E9  add         byte ptr [eax],al  
00B004EB  add         byte ptr [eax],al  
00B004ED  add         byte ptr [eax],al  
00B004EF  add         byte ptr [eax],al  
00B004F1  add         byte ptr [eax],al  
00B004F3  add         byte ptr [eax],al  
00B004F5  add         byte ptr [eax],al  
00B004F7  add         byte ptr [eax],al  
00B004F9  add         byte ptr [eax],al  
00B004FB  add         byte ptr [eax],al  
00B004FD  add         byte ptr [eax],al  
00B004FF  add         byte ptr [eax],al  
00B00501  add         byte ptr [eax],al  
00B00503  add         byte ptr [eax],al  
00B00505  add         byte ptr [eax],al  
00B00507  add         byte ptr [eax],al  
00B00509  add         byte ptr [eax],al  
00B0050B  add         byte ptr [eax],al  
00B0050D  add         byte ptr [eax],al  
00B0050F  add         byte ptr [eax],al  
00B00511  add         byte ptr [eax],al  
00B00513  add         byte ptr [eax],al  
00B00515  add         byte ptr [eax],al  
00B00517  add         byte ptr [eax],al  
00B00519  add         byte ptr [eax],al  
00B0051B  add         byte ptr [eax],al  
00B0051D  add         byte ptr [eax],al  
00B0051F  add         byte ptr [eax],al  
00B00521  add         byte ptr [eax],al  
00B00523  add         byte ptr [eax],al  
00B00525  add         byte ptr [eax],al  
00B00527  add         byte ptr [eax],al  
00B00529  add         byte ptr [eax],al  
00B0052B  add         byte ptr [eax],al  
00B0052D  add         byte ptr [eax],al  
00B0052F  add         byte ptr [eax],al  
00B00531  add         byte ptr [eax],al  
00B00533  add         byte ptr [eax],al  
00B00535  add         byte ptr [eax],al  
00B00537  add         byte ptr [eax],al  
00B00539  add         byte ptr [eax],al  
00B0053B  add         byte ptr [eax],al  
00B0053D  add         byte ptr [eax],al  
00B0053F  add         byte ptr [eax],al  
00B00541  add         byte ptr [eax],al  
00B00543  add         byte ptr [eax],al  
00B00545  add         byte ptr [eax],al  
00B00547  add         byte ptr [eax],al  
00B00549  add         byte ptr [eax],al  
00B0054B  add         byte ptr [eax],al  
00B0054D  add         byte ptr [eax],al  
00B0054F  add         byte ptr [eax],al  
00B00551  add         byte ptr [eax],al  
00B00553  add         byte ptr [eax],al  
00B00555  add         byte ptr [eax],al  
00B00557  add         byte ptr [eax],al  
00B00559  add         byte ptr [eax],al  
00B0055B  add         byte ptr [eax],al  
00B0055D  add         byte ptr [eax],al  
00B0055F  add         byte ptr [eax],al  
00B00561  add         byte ptr [eax],al  
00B00563  add         byte ptr [eax],al  
00B00565  add         byte ptr [eax],al  
00B00567  add         byte ptr [eax],al  
00B00569  add         byte ptr [eax],al  
00B0056B  add         byte ptr [eax],al  
00B0056D  add         byte ptr [eax],al  
00B0056F  add         byte ptr [eax],al  
00B00571  add         byte ptr [eax],al  
00B00573  add         byte ptr [eax],al  
00B00575  add         byte ptr [eax],al  
00B00577  add         byte ptr [eax],al  
00B00579  add         byte ptr [eax],al  
00B0057B  add         byte ptr [eax],al  
00B0057D  add         byte ptr [eax],al  
00B0057F  add         byte ptr [eax],al  
00B00581  add         byte ptr [eax],al  
00B00583  add         byte ptr [eax],al  
00B00585  add         byte ptr [eax],al  
00B00587  add         byte ptr [eax],al  
00B00589  add         byte ptr [eax],al  
00B0058B  add         byte ptr [eax],al  
00B0058D  add         byte ptr [eax],al  
00B0058F  add         byte ptr [eax],al  
00B00591  add         byte ptr [eax],al  
00B00593  add         byte ptr [eax],al  
00B00595  add         byte ptr [eax],al  
00B00597  add         byte ptr [eax],al  
00B00599  add         byte ptr [eax],al  
00B0059B  add         byte ptr [eax],al  
00B0059D  add         byte ptr [eax],al  
00B0059F  add         byte ptr [eax],al  
00B005A1  add         byte ptr [eax],al  
00B005A3  add         byte ptr [eax],al  
00B005A5  add         byte ptr [eax],al  
00B005A7  add         byte ptr [eax],al  
00B005A9  add         byte ptr [eax],al  
00B005AB  add         byte ptr [eax],al  
00B005AD  add         byte ptr [eax],al  
00B005AF  add         byte ptr [eax],al  
00B005B1  add         byte ptr [eax],al  
00B005B3  add         byte ptr [eax],al  
00B005B5  add         byte ptr [eax],al  
00B005B7  add         byte ptr [eax],al  
00B005B9  add         byte ptr [eax],al  
00B005BB  add         byte ptr [eax],al  
00B005BD  add         byte ptr [eax],al  
00B005BF  add         byte ptr [eax],al  
00B005C1  add         byte ptr [eax],al  
00B005C3  add         byte ptr [eax],al  
00B005C5  add         byte ptr [eax],al  
00B005C7  add         byte ptr [eax],al  
00B005C9  add         byte ptr [eax],al  
00B005CB  add         byte ptr [eax],al  
00B005CD  add         byte ptr [eax],al  
00B005CF  add         byte ptr [eax],al  
00B005D1  add         byte ptr [eax],al  
00B005D3  add         byte ptr [eax],al  
00B005D5  add         byte ptr [eax],al  
00B005D7  add         byte ptr [eax],al  
00B005D9  add         byte ptr [eax],al  
00B005DB  add         byte ptr [eax],al  
00B005DD  add         byte ptr [eax],al  
00B005DF  add         byte ptr [eax],al  
00B005E1  add         byte ptr [eax],al  
00B005E3  add         byte ptr [eax],al  
00B005E5  add         byte ptr [eax],al  
00B005E7  add         byte ptr [eax],al  
00B005E9  add         byte ptr [eax],al  
00B005EB  add         byte ptr [eax],al  
00B005ED  add         byte ptr [eax],al  
00B005EF  add         byte ptr [eax],al  
00B005F1  add         byte ptr [eax],al  
00B005F3  add         byte ptr [eax],al  
00B005F5  add         byte ptr [eax],al  
00B005F7  add         byte ptr [eax],al  
00B005F9  add         byte ptr [eax],al  
00B005FB  add         byte ptr [eax],al  
00B005FD  add         byte ptr [eax],al  
00B005FF  add         byte ptr [eax],al  
00B00601  add         byte ptr [eax],al  
00B00603  add         byte ptr [eax],al  
00B00605  add         byte ptr [eax],al  
00B00607  add         byte ptr [eax],al  
00B00609  add         byte ptr [eax],al  
00B0060B  add         byte ptr [eax],al  
00B0060D  add         byte ptr [eax],al  
00B0060F  add         byte ptr [eax],al  
00B00611  add         byte ptr [eax],al  
00B00613  add         byte ptr [eax],al  
00B00615  add         byte ptr [eax],al  
00B00617  add         byte ptr [eax],al  
00B00619  add         byte ptr [eax],al  
00B0061B  add         byte ptr [eax],al  
00B0061D  add         byte ptr [eax],al  
00B0061F  add         byte ptr [eax],al  
00B00621  add         byte ptr [eax],al  
00B00623  add         byte ptr [eax],al  
00B00625  add         byte ptr [eax],al  
00B00627  add         byte ptr [eax],al  
00B00629  add         byte ptr [eax],al  
00B0062B  add         byte ptr [eax],al  
00B0062D  add         byte ptr [eax],al  
00B0062F  add         byte ptr [eax],al  
00B00631  add         byte ptr [eax],al  
00B00633  add         byte ptr [eax],al  
00B00635  add         byte ptr [eax],al  
00B00637  add         byte ptr [eax],al  
00B00639  add         byte ptr [eax],al  
00B0063B  add         byte ptr [eax],al  
00B0063D  add         byte ptr [eax],al  
00B0063F  add         byte ptr [eax],al  
00B00641  add         byte ptr [eax],al  
00B00643  add         byte ptr [eax],al  
00B00645  add         byte ptr [eax],al  
00B00647  add         byte ptr [eax],al  
00B00649  add         byte ptr [eax],al  
00B0064B  add         byte ptr [eax],al  
00B0064D  add         byte ptr [eax],al  
00B0064F  add         byte ptr [eax],al  
00B00651  add         byte ptr [eax],al  
00B00653  add         byte ptr [eax],al  
00B00655  add         byte ptr [eax],al  
00B00657  add         byte ptr [eax],al  
00B00659  add         byte ptr [eax],al  
00B0065B  add         byte ptr [eax],al  
00B0065D  add         byte ptr [eax],al  
00B0065F  add         byte ptr [eax],al  
00B00661  add         byte ptr [eax],al  
00B00663  add         byte ptr [eax],al  
00B00665  add         byte ptr [eax],al  
00B00667  add         byte ptr [eax],al  
00B00669  add         byte ptr [eax],al  
00B0066B  add         byte ptr [eax],al  
00B0066D  add         byte ptr [eax],al  
00B0066F  add         byte ptr [eax],al  
00B00671  add         byte ptr [eax],al  
00B00673  add         byte ptr [eax],al  
00B00675  add         byte ptr [eax],al  
00B00677  add         byte ptr [eax],al  
00B00679  add         byte ptr [eax],al  
00B0067B  add         byte ptr [eax],al  
00B0067D  add         byte ptr [eax],al  
00B0067F  add         byte ptr [eax],al  
00B00681  add         byte ptr [eax],al  
00B00683  add         byte ptr [eax],al  
00B00685  add         byte ptr [eax],al  
00B00687  add         byte ptr [eax],al  
00B00689  add         byte ptr [eax],al  
00B0068B  add         byte ptr [eax],al  
00B0068D  add         byte ptr [eax],al  
00B0068F  add         byte ptr [eax],al  
00B00691  add         byte ptr [eax],al  
00B00693  add         byte ptr [eax],al  
00B00695  add         byte ptr [eax],al  
00B00697  add         byte ptr [eax],al  
00B00699  add         byte ptr [eax],al  
00B0069B  add         byte ptr [eax],al  
00B0069D  add         byte ptr [eax],al  
00B0069F  add         byte ptr [eax],al  
00B006A1  add         byte ptr [eax],al  
00B006A3  add         byte ptr [eax],al  
00B006A5  add         byte ptr [eax],al  
00B006A7  add         byte ptr [eax],al  
00B006A9  add         byte ptr [eax],al  
00B006AB  add         byte ptr [eax],al  
00B006AD  add         byte ptr [eax],al  
00B006AF  add         byte ptr [eax],al  
00B006B1  add         byte ptr [eax],al  
00B006B3  add         byte ptr [eax],al  
00B006B5  add         byte ptr [eax],al  
00B006B7  add         byte ptr [eax],al  
00B006B9  add         byte ptr [eax],al  
00B006BB  add         byte ptr [eax],al  
00B006BD  add         byte ptr [eax],al  
00B006BF  add         byte ptr [eax],al  
00B006C1  add         byte ptr [eax],al  
00B006C3  add         byte ptr [eax],al  
00B006C5  add         byte ptr [eax],al  
00B006C7  add         byte ptr [eax],al  
00B006C9  add         byte ptr [eax],al  
00B006CB  add         byte ptr [eax],al  
00B006CD  add         byte ptr [eax],al  
00B006CF  add         byte ptr [eax],al  
00B006D1  add         byte ptr [eax],al  
00B006D3  add         byte ptr [eax],al  
00B006D5  add         byte ptr [eax],al  
00B006D7  add         byte ptr [eax],al  
00B006D9  add         byte ptr [eax],al  
00B006DB  add         byte ptr [eax],al  
00B006DD  add         byte ptr [eax],al  
00B006DF  add         byte ptr [eax],al  
00B006E1  add         byte ptr [eax],al  
00B006E3  add         byte ptr [eax],al  
00B006E5  add         byte ptr [eax],al  
00B006E7  add         byte ptr [eax],al  
00B006E9  add         byte ptr [eax],al  
00B006EB  add         byte ptr [eax],al  
00B006ED  add         byte ptr [eax],al  
00B006EF  add         byte ptr [eax],al  
00B006F1  add         byte ptr [eax],al  
00B006F3  add         byte ptr [eax],al  
00B006F5  add         byte ptr [eax],al  
00B006F7  add         byte ptr [eax],al  
00B006F9  add         byte ptr [eax],al  
00B006FB  add         byte ptr [eax],al  
00B006FD  add         byte ptr [eax],al  
00B006FF  add         byte ptr [eax],al  
00B00701  add         byte ptr [eax],al  
00B00703  add         byte ptr [eax],al  
00B00705  add         byte ptr [eax],al  
00B00707  add         byte ptr [eax],al  
00B00709  add         byte ptr [eax],al  
00B0070B  add         byte ptr [eax],al  
00B0070D  add         byte ptr [eax],al  
00B0070F  add         byte ptr [eax],al  
00B00711  add         byte ptr [eax],al  
00B00713  add         byte ptr [eax],al  
00B00715  add         byte ptr [eax],al  
00B00717  add         byte ptr [eax],al  
00B00719  add         byte ptr [eax],al  
00B0071B  add         byte ptr [eax],al  
00B0071D  add         byte ptr [eax],al  
00B0071F  add         byte ptr [eax],al  
00B00721  add         byte ptr [eax],al  
00B00723  add         byte ptr [eax],al  
00B00725  add         byte ptr [eax],al  
00B00727  add         byte ptr [eax],al  
00B00729  add         byte ptr [eax],al  
00B0072B  add         byte ptr [eax],al  
00B0072D  add         byte ptr [eax],al  
00B0072F  add         byte ptr [eax],al  
00B00731  add         byte ptr [eax],al  
00B00733  add         byte ptr [eax],al  
00B00735  add         byte ptr [eax],al  
00B00737  add         byte ptr [eax],al  
00B00739  add         byte ptr [eax],al  
00B0073B  add         byte ptr [eax],al  
00B0073D  add         byte ptr [eax],al  
00B0073F  add         byte ptr [eax],al  
00B00741  add         byte ptr [eax],al  
00B00743  add         byte ptr [eax],al  
00B00745  add         byte ptr [eax],al  
00B00747  add         byte ptr [eax],al  
00B00749  add         byte ptr [eax],al  
00B0074B  add         byte ptr [eax],al  
00B0074D  add         byte ptr [eax],al  
00B0074F  add         byte ptr [eax],al  
00B00751  add         byte ptr [eax],al  
00B00753  add         byte ptr [eax],al  
00B00755  add         byte ptr [eax],al  
00B00757  add         byte ptr [eax],al  
00B00759  add         byte ptr [eax],al  
00B0075B  add         byte ptr [eax],al  
00B0075D  add         byte ptr [eax],al  
00B0075F  add         byte ptr [eax],al  
00B00761  add         byte ptr [eax],al  
00B00763  add         byte ptr [eax],al  
00B00765  add         byte ptr [eax],al  
00B00767  add         byte ptr [eax],al  
00B00769  add         byte ptr [eax],al  
00B0076B  add         byte ptr [eax],al  
00B0076D  add         byte ptr [eax],al  
00B0076F  add         byte ptr [eax],al  
00B00771  add         byte ptr [eax],al  
00B00773  add         byte ptr [eax],al  
00B00775  add         byte ptr [eax],al  
00B00777  add         byte ptr [eax],al  
00B00779  add         byte ptr [eax],al  
00B0077B  add         byte ptr [eax],al  
00B0077D  add         byte ptr [eax],al  
00B0077F  add         byte ptr [eax],al  
00B00781  add         byte ptr [eax],al  
00B00783  add         byte ptr [eax],al  
00B00785  add         byte ptr [eax],al  
00B00787  add         byte ptr [eax],al  
00B00789  add         byte ptr [eax],al  
00B0078B  add         byte ptr [eax],al  
00B0078D  add         byte ptr [eax],al  
00B0078F  add         byte ptr [eax],al  
00B00791  add         byte ptr [eax],al  
00B00793  add         byte ptr [eax],al  
00B00795  add         byte ptr [eax],al  
00B00797  add         byte ptr [eax],al  
00B00799  add         byte ptr [eax],al  
00B0079B  add         byte ptr [eax],al  
00B0079D  add         byte ptr [eax],al  
00B0079F  add         byte ptr [eax],al  
00B007A1  add         byte ptr [eax],al  
00B007A3  add         byte ptr [eax],al  
00B007A5  add         byte ptr [eax],al  
00B007A7  add         byte ptr [eax],al  
00B007A9  add         byte ptr [eax],al  
00B007AB  add         byte ptr [eax],al  
00B007AD  add         byte ptr [eax],al  
00B007AF  add         byte ptr [eax],al  
00B007B1  add         byte ptr [eax],al  
00B007B3  add         byte ptr [eax],al  
00B007B5  add         byte ptr [eax],al  
00B007B7  add         byte ptr [eax],al  
00B007B9  add         byte ptr [eax],al  
00B007BB  add         byte ptr [eax],al  
00B007BD  add         byte ptr [eax],al  
00B007BF  add         byte ptr [eax],al  
00B007C1  add         byte ptr [eax],al  
00B007C3  add         byte ptr [eax],al  
00B007C5  add         byte ptr [eax],al  
00B007C7  add         byte ptr [eax],al  
00B007C9  add         byte ptr [eax],al  
00B007CB  add         byte ptr [eax],al  
00B007CD  add         byte ptr [eax],al  
00B007CF  add         byte ptr [eax],al  
00B007D1  add         byte ptr [eax],al  
00B007D3  add         byte ptr [eax],al  
00B007D5  add         byte ptr [eax],al  
00B007D7  add         byte ptr [eax],al  
00B007D9  add         byte ptr [eax],al  
00B007DB  add         byte ptr [eax],al  
00B007DD  add         byte ptr [eax],al  
00B007DF  add         byte ptr [eax],al  
00B007E1  add         byte ptr [eax],al  
00B007E3  add         byte ptr [eax],al  
00B007E5  add         byte ptr [eax],al  
00B007E7  add         byte ptr [eax],al  
00B007E9  add         byte ptr [eax],al  
00B007EB  add         byte ptr [eax],al  
00B007ED  add         byte ptr [eax],al  
00B007EF  add         byte ptr [eax],al  
00B007F1  add         byte ptr [eax],al  
00B007F3  add         byte ptr [eax],al  
00B007F5  add         byte ptr [eax],al  
00B007F7  add         byte ptr [eax],al  
00B007F9  add         byte ptr [eax],al  
00B007FB  add         byte ptr [eax],al  
00B007FD  add         byte ptr [eax],al  
00B007FF  add         byte ptr [eax],al  
00B00801  add         byte ptr [eax],al  
00B00803  add         byte ptr [eax],al  
00B00805  add         byte ptr [eax],al  
00B00807  add         byte ptr [eax],al  
00B00809  add         byte ptr [eax],al  
00B0080B  add         byte ptr [eax],al  
00B0080D  add         byte ptr [eax],al  
00B0080F  add         byte ptr [eax],al  
00B00811  add         byte ptr [eax],al  
00B00813  add         byte ptr [eax],al  
00B00815  add         byte ptr [eax],al  
00B00817  add         byte ptr [eax],al  
00B00819  add         byte ptr [eax],al  
00B0081B  add         byte ptr [eax],al  
00B0081D  add         byte ptr [eax],al  
00B0081F  add         byte ptr [eax],al  
00B00821  add         byte ptr [eax],al  
00B00823  add         byte ptr [eax],al  
00B00825  add         byte ptr [eax],al  
00B00827  add         byte ptr [eax],al  
00B00829  add         byte ptr [eax],al  
00B0082B  add         byte ptr [eax],al  
00B0082D  add         byte ptr [eax],al  
00B0082F  add         byte ptr [eax],al  
00B00831  add         byte ptr [eax],al  
00B00833  add         byte ptr [eax],al  
00B00835  add         byte ptr [eax],al  
00B00837  add         byte ptr [eax],al  
00B00839  add         byte ptr [eax],al  
00B0083B  add         byte ptr [eax],al  
00B0083D  add         byte ptr [eax],al  
00B0083F  add         byte ptr [eax],al  
00B00841  add         byte ptr [eax],al  
00B00843  add         byte ptr [eax],al  
00B00845  add         byte ptr [eax],al  
00B00847  add         byte ptr [eax],al  
00B00849  add         byte ptr [eax],al  
00B0084B  add         byte ptr [eax],al  
00B0084D  add         byte ptr [eax],al  
00B0084F  add         byte ptr [eax],al  
00B00851  add         byte ptr [eax],al  
00B00853  add         byte ptr [eax],al  
00B00855  add         byte ptr [eax],al  
00B00857  add         byte ptr [eax],al  
00B00859  add         byte ptr [eax],al  
00B0085B  add         byte ptr [eax],al  
00B0085D  add         byte ptr [eax],al  
00B0085F  add         byte ptr [eax],al  
00B00861  add         byte ptr [eax],al  
00B00863  add         byte ptr [eax],al  
00B00865  add         byte ptr [eax],al  
00B00867  add         byte ptr [eax],al  
00B00869  add         byte ptr [eax],al  
00B0086B  add         byte ptr [eax],al  
00B0086D  add         byte ptr [eax],al  
00B0086F  add         byte ptr [eax],al  
00B00871  add         byte ptr [eax],al  
00B00873  add         byte ptr [eax],al  
00B00875  add         byte ptr [eax],al  
00B00877  add         byte ptr [eax],al  
00B00879  add         byte ptr [eax],al  
00B0087B  add         byte ptr [eax],al  
00B0087D  add         byte ptr [eax],al  
00B0087F  add         byte ptr [eax],al  
00B00881  add         byte ptr [eax],al  
00B00883  add         byte ptr [eax],al  
00B00885  add         byte ptr [eax],al  
00B00887  add         byte ptr [eax],al  
00B00889  add         byte ptr [eax],al  
00B0088B  add         byte ptr [eax],al  
00B0088D  add         byte ptr [eax],al  
00B0088F  add         byte ptr [eax],al  
00B00891  add         byte ptr [eax],al  
00B00893  add         byte ptr [eax],al  
00B00895  add         byte ptr [eax],al  
00B00897  add         byte ptr [eax],al  
00B00899  add         byte ptr [eax],al  
00B0089B  add         byte ptr [eax],al  
00B0089D  add         byte ptr [eax],al  
00B0089F  add         byte ptr [eax],al  
00B008A1  add         byte ptr [eax],al  
00B008A3  add         byte ptr [eax],al  
00B008A5  add         byte ptr [eax],al  
00B008A7  add         byte ptr [eax],al  
00B008A9  add         byte ptr [eax],al  
00B008AB  add         byte ptr [eax],al  
00B008AD  add         byte ptr [eax],al  
00B008AF  add         byte ptr [eax],al  
00B008B1  add         byte ptr [eax],al  
00B008B3  add         byte ptr [eax],al  
00B008B5  add         byte ptr [eax],al  
00B008B7  add         byte ptr [eax],al  
00B008B9  add         byte ptr [eax],al  
00B008BB  add         byte ptr [eax],al  
00B008BD  add         byte ptr [eax],al  
00B008BF  add         byte ptr [eax],al  
00B008C1  add         byte ptr [eax],al  
00B008C3  add         byte ptr [eax],al  
00B008C5  add         byte ptr [eax],al  
00B008C7  add         byte ptr [eax],al  
00B008C9  add         byte ptr [eax],al  
00B008CB  add         byte ptr [eax],al  
00B008CD  add         byte ptr [eax],al  
00B008CF  add         byte ptr [eax],al  
00B008D1  add         byte ptr [eax],al  
00B008D3  add         byte ptr [eax],al  
00B008D5  add         byte ptr [eax],al  
00B008D7  add         byte ptr [eax],al  
00B008D9  add         byte ptr [eax],al  
00B008DB  add         byte ptr [eax],al  
00B008DD  add         byte ptr [eax],al  
00B008DF  add         byte ptr [eax],al  
00B008E1  add         byte ptr [eax],al  
00B008E3  add         byte ptr [eax],al  
00B008E5  add         byte ptr [eax],al  
00B008E7  add         byte ptr [eax],al  
00B008E9  add         byte ptr [eax],al  
00B008EB  add         byte ptr [eax],al  
00B008ED  add         byte ptr [eax],al  
00B008EF  add         byte ptr [eax],al  
00B008F1  add         byte ptr [eax],al  
00B008F3  add         byte ptr [eax],al  
00B008F5  add         byte ptr [eax],al  
00B008F7  add         byte ptr [eax],al  
00B008F9  add         byte ptr [eax],al  
00B008FB  add         byte ptr [eax],al  
00B008FD  add         byte ptr [eax],al  
00B008FF  add         byte ptr [eax],al  
00B00901  add         byte ptr [eax],al  
00B00903  add         byte ptr [eax],al  
00B00905  add         byte ptr [eax],al  
00B00907  add         byte ptr [eax],al  
00B00909  add         byte ptr [eax],al  
00B0090B  add         byte ptr [eax],al  
00B0090D  add         byte ptr [eax],al  
00B0090F  add         byte ptr [eax],al  
00B00911  add         byte ptr [eax],al  
00B00913  add         byte ptr [eax],al  
00B00915  add         byte ptr [eax],al  
00B00917  add         byte ptr [eax],al  
00B00919  add         byte ptr [eax],al  
00B0091B  add         byte ptr [eax],al  
00B0091D  add         byte ptr [eax],al  
00B0091F  add         byte ptr [eax],al  
00B00921  add         byte ptr [eax],al  
00B00923  add         byte ptr [eax],al  
00B00925  add         byte ptr [eax],al  
00B00927  add         byte ptr [eax],al  
00B00929  add         byte ptr [eax],al  
00B0092B  add         byte ptr [eax],al  
00B0092D  add         byte ptr [eax],al  
00B0092F  add         byte ptr [eax],al  
00B00931  add         byte ptr [eax],al  
00B00933  add         byte ptr [eax],al  
00B00935  add         byte ptr [eax],al  
00B00937  add         byte ptr [eax],al  
00B00939  add         byte ptr [eax],al  
00B0093B  add         byte ptr [eax],al  
00B0093D  add         byte ptr [eax],al  
00B0093F  add         byte ptr [eax],al  
00B00941  add         byte ptr [eax],al  
00B00943  add         byte ptr [eax],al  
00B00945  add         byte ptr [eax],al  
00B00947  add         byte ptr [eax],al  
00B00949  add         byte ptr [eax],al  
00B0094B  add         byte ptr [eax],al  
00B0094D  add         byte ptr [eax],al  
00B0094F  add         byte ptr [eax],al  
00B00951  add         byte ptr [eax],al  
00B00953  add         byte ptr [eax],al  
00B00955  add         byte ptr [eax],al  
00B00957  add         byte ptr [eax],al  
00B00959  add         byte ptr [eax],al  
00B0095B  add         byte ptr [eax],al  
00B0095D  add         byte ptr [eax],al  
00B0095F  add         byte ptr [eax],al  
00B00961  add         byte ptr [eax],al  
00B00963  add         byte ptr [eax],al  
00B00965  add         byte ptr [eax],al  
00B00967  add         byte ptr [eax],al  
00B00969  add         byte ptr [eax],al  
00B0096B  add         byte ptr [eax],al  
00B0096D  add         byte ptr [eax],al  
00B0096F  add         byte ptr [eax],al  
00B00971  add         byte ptr [eax],al  
00B00973  add         byte ptr [eax],al  
00B00975  add         byte ptr [eax],al  
00B00977  add         byte ptr [eax],al  
00B00979  add         byte ptr [eax],al  
00B0097B  add         byte ptr [eax],al  
00B0097D  add         byte ptr [eax],al  
00B0097F  add         byte ptr [eax],al  
00B00981  add         byte ptr [eax],al  
00B00983  add         byte ptr [eax],al  
00B00985  add         byte ptr [eax],al  
00B00987  add         byte ptr [eax],al  
00B00989  add         byte ptr [eax],al  
00B0098B  add         byte ptr [eax],al  
00B0098D  add         byte ptr [eax],al  
00B0098F  add         byte ptr [eax],al  
00B00991  add         byte ptr [eax],al  
00B00993  add         byte ptr [eax],al  
00B00995  add         byte ptr [eax],al  
00B00997  add         byte ptr [eax],al  
00B00999  add         byte ptr [eax],al  
00B0099B  add         byte ptr [eax],al  
00B0099D  add         byte ptr [eax],al  
00B0099F  add         byte ptr [eax],al  
00B009A1  add         byte ptr [eax],al  
00B009A3  add         byte ptr [eax],al  
00B009A5  add         byte ptr [eax],al  
00B009A7  add         byte ptr [eax],al  
00B009A9  add         byte ptr [eax],al  
00B009AB  add         byte ptr [eax],al  
00B009AD  add         byte ptr [eax],al  
00B009AF  add         byte ptr [eax],al  
00B009B1  add         byte ptr [eax],al  
00B009B3  add         byte ptr [eax],al  
00B009B5  add         byte ptr [eax],al  
00B009B7  add         byte ptr [eax],al  
00B009B9  add         byte ptr [eax],al  
00B009BB  add         byte ptr [eax],al  
00B009BD  add         byte ptr [eax],al  
00B009BF  add         byte ptr [eax],al  
00B009C1  add         byte ptr [eax],al  
00B009C3  add         byte ptr [eax],al  
00B009C5  add         byte ptr [eax],al  
00B009C7  add         byte ptr [eax],al  
00B009C9  add         byte ptr [eax],al  
00B009CB  add         byte ptr [eax],al  
00B009CD  add         byte ptr [eax],al  
00B009CF  add         byte ptr [eax],al  
00B009D1  add         byte ptr [eax],al  
00B009D3  add         byte ptr [eax],al  
00B009D5  add         byte ptr [eax],al  
00B009D7  add         byte ptr [eax],al  
00B009D9  add         byte ptr [eax],al  
00B009DB  add         byte ptr [eax],al  
00B009DD  add         byte ptr [eax],al  
00B009DF  add         byte ptr [eax],al  
00B009E1  add         byte ptr [eax],al  
00B009E3  add         byte ptr [eax],al  
00B009E5  add         byte ptr [eax],al  
00B009E7  add         byte ptr [eax],al  
00B009E9  add         byte ptr [eax],al  
00B009EB  add         byte ptr [eax],al  
00B009ED  add         byte ptr [eax],al  
00B009EF  add         byte ptr [eax],al  
00B009F1  add         byte ptr [eax],al  
00B009F3  add         byte ptr [eax],al  
00B009F5  add         byte ptr [eax],al  
00B009F7  add         byte ptr [eax],al  
00B009F9  add         byte ptr [eax],al  
00B009FB  add         byte ptr [eax],al  
00B009FD  add         byte ptr [eax],al  
00B009FF  add         byte ptr [eax],al  
00B00A01  add         byte ptr [eax],al  
00B00A03  add         byte ptr [eax],al  
00B00A05  add         byte ptr [eax],al  
00B00A07  add         byte ptr [eax],al  
00B00A09  add         byte ptr [eax],al  
00B00A0B  add         byte ptr [eax],al  
00B00A0D  add         byte ptr [eax],al  
00B00A0F  add         byte ptr [eax],al  
00B00A11  add         byte ptr [eax],al  
00B00A13  add         byte ptr [eax],al  
00B00A15  add         byte ptr [eax],al  
00B00A17  add         byte ptr [eax],al  
00B00A19  add         byte ptr [eax],al  
00B00A1B  add         byte ptr [eax],al  
00B00A1D  add         byte ptr [eax],al  
00B00A1F  add         byte ptr [eax],al  
00B00A21  add         byte ptr [eax],al  
00B00A23  add         byte ptr [eax],al  
00B00A25  add         byte ptr [eax],al  
00B00A27  add         byte ptr [eax],al  
00B00A29  add         byte ptr [eax],al  
00B00A2B  add         byte ptr [eax],al  
00B00A2D  add         byte ptr [eax],al  
00B00A2F  add         byte ptr [eax],al  
00B00A31  add         byte ptr [eax],al  
00B00A33  add         byte ptr [eax],al  
00B00A35  add         byte ptr [eax],al  
00B00A37  add         byte ptr [eax],al  
00B00A39  add         byte ptr [eax],al  
00B00A3B  add         byte ptr [eax],al  
00B00A3D  add         byte ptr [eax],al  
00B00A3F  add         byte ptr [eax],al  
00B00A41  add         byte ptr [eax],al  
00B00A43  add         byte ptr [eax],al  
00B00A45  add         byte ptr [eax],al  
00B00A47  add         byte ptr [eax],al  
00B00A49  add         byte ptr [eax],al  
00B00A4B  add         byte ptr [eax],al  
00B00A4D  add         byte ptr [eax],al  
00B00A4F  add         byte ptr [eax],al  
00B00A51  add         byte ptr [eax],al  
00B00A53  add         byte ptr [eax],al  
00B00A55  add         byte ptr [eax],al  
00B00A57  add         byte ptr [eax],al  
00B00A59  add         byte ptr [eax],al  
00B00A5B  add         byte ptr [eax],al  
00B00A5D  add         byte ptr [eax],al  
00B00A5F  add         byte ptr [eax],al  
00B00A61  add         byte ptr [eax],al  
00B00A63  add         byte ptr [eax],al  
00B00A65  add         byte ptr [eax],al  
00B00A67  add         byte ptr [eax],al  
00B00A69  add         byte ptr [eax],al  
00B00A6B  add         byte ptr [eax],al  
00B00A6D  add         byte ptr [eax],al  
00B00A6F  add         byte ptr [eax],al  
00B00A71  add         byte ptr [eax],al  
00B00A73  add         byte ptr [eax],al  
00B00A75  add         byte ptr [eax],al  
00B00A77  add         byte ptr [eax],al  
00B00A79  add         byte ptr [eax],al  
00B00A7B  add         byte ptr [eax],al  
00B00A7D  add         byte ptr [eax],al  
00B00A7F  add         byte ptr [eax],al  
00B00A81  add         byte ptr [eax],al  
00B00A83  add         byte ptr [eax],al  
00B00A85  add         byte ptr [eax],al  
00B00A87  add         byte ptr [eax],al  
00B00A89  add         byte ptr [eax],al  
00B00A8B  add         byte ptr [eax],al  
00B00A8D  add         byte ptr [eax],al  
00B00A8F  add         byte ptr [eax],al  
00B00A91  add         byte ptr [eax],al  
00B00A93  add         byte ptr [eax],al  
00B00A95  add         byte ptr [eax],al  
00B00A97  add         byte ptr [eax],al  
00B00A99  add         byte ptr [eax],al  
00B00A9B  add         byte ptr [eax],al  
00B00A9D  add         byte ptr [eax],al  
00B00A9F  add         byte ptr [eax],al  
00B00AA1  add         byte ptr [eax],al  
00B00AA3  add         byte ptr [eax],al  
00B00AA5  add         byte ptr [eax],al  
00B00AA7  add         byte ptr [eax],al  
00B00AA9  add         byte ptr [eax],al  
00B00AAB  add         byte ptr [eax],al  
00B00AAD  add         byte ptr [eax],al  
00B00AAF  add         byte ptr [eax],al  
00B00AB1  add         byte ptr [eax],al  
00B00AB3  add         byte ptr [eax],al  
00B00AB5  add         byte ptr [eax],al  
00B00AB7  add         byte ptr [eax],al  
00B00AB9  add         byte ptr [eax],al  
00B00ABB  add         byte ptr [eax],al  
00B00ABD  add         byte ptr [eax],al  
00B00ABF  add         byte ptr [eax],al  
00B00AC1  add         byte ptr [eax],al  
00B00AC3  add         byte ptr [eax],al  
00B00AC5  add         byte ptr [eax],al  
00B00AC7  add         byte ptr [eax],al  
00B00AC9  add         byte ptr [eax],al  
00B00ACB  add         byte ptr [eax],al  
00B00ACD  add         byte ptr [eax],al  
00B00ACF  add         byte ptr [eax],al  
00B00AD1  add         byte ptr [eax],al  
00B00AD3  add         byte ptr [eax],al  
00B00AD5  add         byte ptr [eax],al  
00B00AD7  add         byte ptr [eax],al  
00B00AD9  add         byte ptr [eax],al  
00B00ADB  add         byte ptr [eax],al  
00B00ADD  add         byte ptr [eax],al  
00B00ADF  add         byte ptr [eax],al  
00B00AE1  add         byte ptr [eax],al  
00B00AE3  add         byte ptr [eax],al  
00B00AE5  add         byte ptr [eax],al  
00B00AE7  add         byte ptr [eax],al  
00B00AE9  add         byte ptr [eax],al  
00B00AEB  add         byte ptr [eax],al  
00B00AED  add         byte ptr [eax],al  
00B00AEF  add         byte ptr [eax],al  
00B00AF1  add         byte ptr [eax],al  
00B00AF3  add         byte ptr [eax],al  
00B00AF5  add         byte ptr [eax],al  
00B00AF7  add         byte ptr [eax],al  
00B00AF9  add         byte ptr [eax],al  
00B00AFB  add         byte ptr [eax],al  
00B00AFD  add         byte ptr [eax],al  
00B00AFF  add         byte ptr [eax],al  
00B00B01  add         byte ptr [eax],al  
00B00B03  add         byte ptr [eax],al  
00B00B05  add         byte ptr [eax],al  
00B00B07  add         byte ptr [eax],al  
00B00B09  add         byte ptr [eax],al  
00B00B0B  add         byte ptr [eax],al  
00B00B0D  add         byte ptr [eax],al  
00B00B0F  add         byte ptr [eax],al  
00B00B11  add         byte ptr [eax],al  
00B00B13  add         byte ptr [eax],al  
00B00B15  add         byte ptr [eax],al  
00B00B17  add         byte ptr [eax],al  
00B00B19  add         byte ptr [eax],al  
00B00B1B  add         byte ptr [eax],al  
00B00B1D  add         byte ptr [eax],al  
00B00B1F  add         byte ptr [eax],al  
00B00B21  add         byte ptr [eax],al  
00B00B23  add         byte ptr [eax],al  
00B00B25  add         byte ptr [eax],al  
00B00B27  add         byte ptr [eax],al  
00B00B29  add         byte ptr [eax],al  
00B00B2B  add         byte ptr [eax],al  
00B00B2D  add         byte ptr [eax],al  
00B00B2F  add         byte ptr [eax],al  
00B00B31  add         byte ptr [eax],al  
00B00B33  add         byte ptr [eax],al  
00B00B35  add         byte ptr [eax],al  
00B00B37  add         byte ptr [eax],al  
00B00B39  add         byte ptr [eax],al  
00B00B3B  add         byte ptr [eax],al  
00B00B3D  add         byte ptr [eax],al  
00B00B3F  add         byte ptr [eax],al  
00B00B41  add         byte ptr [eax],al  
00B00B43  add         byte ptr [eax],al  
00B00B45  add         byte ptr [eax],al  
00B00B47  add         byte ptr [eax],al  
00B00B49  add         byte ptr [eax],al  
00B00B4B  add         byte ptr [eax],al  
00B00B4D  add         byte ptr [eax],al  
00B00B4F  add         byte ptr [eax],al  
00B00B51  add         byte ptr [eax],al  
00B00B53  add         byte ptr [eax],al  
00B00B55  add         byte ptr [eax],al  
00B00B57  add         byte ptr [eax],al  
00B00B59  add         byte ptr [eax],al  
00B00B5B  add         byte ptr [eax],al  
00B00B5D  add         byte ptr [eax],al  
00B00B5F  add         byte ptr [eax],al  
00B00B61  add         byte ptr [eax],al  
00B00B63  add         byte ptr [eax],al  
00B00B65  add         byte ptr [eax],al  
00B00B67  add         byte ptr [eax],al  
00B00B69  add         byte ptr [eax],al  
00B00B6B  add         byte ptr [eax],al  
00B00B6D  add         byte ptr [eax],al  
00B00B6F  add         byte ptr [eax],al  
00B00B71  add         byte ptr [eax],al  
00B00B73  add         byte ptr [eax],al  
00B00B75  add         byte ptr [eax],al  
00B00B77  add         byte ptr [eax],al  
00B00B79  add         byte ptr [eax],al  
00B00B7B  add         byte ptr [eax],al  
00B00B7D  add         byte ptr [eax],al  
00B00B7F  add         byte ptr [eax],al  
00B00B81  add         byte ptr [eax],al  
00B00B83  add         byte ptr [eax],al  
00B00B85  add         byte ptr [eax],al  
00B00B87  add         byte ptr [eax],al  
00B00B89  add         byte ptr [eax],al  
00B00B8B  add         byte ptr [eax],al  
00B00B8D  add         byte ptr [eax],al  
00B00B8F  add         byte ptr [eax],al  
00B00B91  add         byte ptr [eax],al  
00B00B93  add         byte ptr [eax],al  
00B00B95  add         byte ptr [eax],al  
00B00B97  add         byte ptr [eax],al  
00B00B99  add         byte ptr [eax],al  
00B00B9B  add         byte ptr [eax],al  
00B00B9D  add         byte ptr [eax],al  
00B00B9F  add         byte ptr [eax],al  
00B00BA1  add         byte ptr [eax],al  
00B00BA3  add         byte ptr [eax],al  
00B00BA5  add         byte ptr [eax],al  
00B00BA7  add         byte ptr [eax],al  
00B00BA9  add         byte ptr [eax],al  
00B00BAB  add         byte ptr [eax],al  
00B00BAD  add         byte ptr [eax],al  
00B00BAF  add         byte ptr [eax],al  
00B00BB1  add         byte ptr [eax],al  
00B00BB3  add         byte ptr [eax],al  
00B00BB5  add         byte ptr [eax],al  
00B00BB7  add         byte ptr [eax],al  
00B00BB9  add         byte ptr [eax],al  
00B00BBB  add         byte ptr [eax],al  
00B00BBD  add         byte ptr [eax],al  
00B00BBF  add         byte ptr [eax],al  
00B00BC1  add         byte ptr [eax],al  
00B00BC3  add         byte ptr [eax],al  
00B00BC5  add         byte ptr [eax],al  
00B00BC7  add         byte ptr [eax],al  
00B00BC9  add         byte ptr [eax],al  
00B00BCB  add         byte ptr [eax],al  
00B00BCD  add         byte ptr [eax],al  
00B00BCF  add         byte ptr [eax],al  
00B00BD1  add         byte ptr [eax],al  
00B00BD3  add         byte ptr [eax],al  
00B00BD5  add         byte ptr [eax],al  
00B00BD7  add         byte ptr [eax],al  
00B00BD9  add         byte ptr [eax],al  
00B00BDB  add         byte ptr [eax],al  
00B00BDD  add         byte ptr [eax],al  
00B00BDF  add         byte ptr [eax],al  
00B00BE1  add         byte ptr [eax],al  
00B00BE3  add         byte ptr [eax],al  
00B00BE5  add         byte ptr [eax],al  
00B00BE7  add         byte ptr [eax],al  
00B00BE9  add         byte ptr [eax],al  
00B00BEB  add         byte ptr [eax],al  
00B00BED  add         byte ptr [eax],al  
00B00BEF  add         byte ptr [eax],al  
00B00BF1  add         byte ptr [eax],al  
00B00BF3  add         byte ptr [eax],al  
00B00BF5  add         byte ptr [eax],al  
00B00BF7  add         byte ptr [eax],al  
00B00BF9  add         byte ptr [eax],al  
00B00BFB  add         byte ptr [eax],al  
00B00BFD  add         byte ptr [eax],al  
00B00BFF  add         byte ptr [eax],al  
00B00C01  add         byte ptr [eax],al  
00B00C03  add         byte ptr [eax],al  
00B00C05  add         byte ptr [eax],al  
00B00C07  add         byte ptr [eax],al  
00B00C09  add         byte ptr [eax],al  
00B00C0B  add         byte ptr [eax],al  
00B00C0D  add         byte ptr [eax],al  
00B00C0F  add         byte ptr [eax],al  
00B00C11  add         byte ptr [eax],al  
00B00C13  add         byte ptr [eax],al  
00B00C15  add         byte ptr [eax],al  
00B00C17  add         byte ptr [eax],al  
00B00C19  add         byte ptr [eax],al  
00B00C1B  add         byte ptr [eax],al  
00B00C1D  add         byte ptr [eax],al  
00B00C1F  add         byte ptr [eax],al  
00B00C21  add         byte ptr [eax],al  
00B00C23  add         byte ptr [eax],al  
00B00C25  add         byte ptr [eax],al  
00B00C27  add         byte ptr [eax],al  
00B00C29  add         byte ptr [eax],al  
00B00C2B  add         byte ptr [eax],al  
00B00C2D  add         byte ptr [eax],al  
00B00C2F  add         byte ptr [eax],al  
00B00C31  add         byte ptr [eax],al  
00B00C33  add         byte ptr [eax],al  
00B00C35  add         byte ptr [eax],al  
00B00C37  add         byte ptr [eax],al  
00B00C39  add         byte ptr [eax],al  
00B00C3B  add         byte ptr [eax],al  
00B00C3D  add         byte ptr [eax],al  
00B00C3F  add         byte ptr [eax],al  
00B00C41  add         byte ptr [eax],al  
00B00C43  add         byte ptr [eax],al  
00B00C45  add         byte ptr [eax],al  
00B00C47  add         byte ptr [eax],al  
00B00C49  add         byte ptr [eax],al  
00B00C4B  add         byte ptr [eax],al  
00B00C4D  add         byte ptr [eax],al  
00B00C4F  add         byte ptr [eax],al  
00B00C51  add         byte ptr [eax],al  
00B00C53  add         byte ptr [eax],al  
00B00C55  add         byte ptr [eax],al  
00B00C57  add         byte ptr [eax],al  
00B00C59  add         byte ptr [eax],al  
00B00C5B  add         byte ptr [eax],al  
00B00C5D  add         byte ptr [eax],al  
00B00C5F  add         byte ptr [eax],al  
00B00C61  add         byte ptr [eax],al  
00B00C63  add         byte ptr [eax],al  
00B00C65  add         byte ptr [eax],al  
00B00C67  add         byte ptr [eax],al  
00B00C69  add         byte ptr [eax],al  
00B00C6B  add         byte ptr [eax],al  
00B00C6D  add         byte ptr [eax],al  
00B00C6F  add         byte ptr [eax],al  
00B00C71  add         byte ptr [eax],al  
00B00C73  add         byte ptr [eax],al  
00B00C75  add         byte ptr [eax],al  
00B00C77  add         byte ptr [eax],al  
00B00C79  add         byte ptr [eax],al  
00B00C7B  add         byte ptr [eax],al  
00B00C7D  add         byte ptr [eax],al  
00B00C7F  add         byte ptr [eax],al  
00B00C81  add         byte ptr [eax],al  
00B00C83  add         byte ptr [eax],al  
00B00C85  add         byte ptr [eax],al  
00B00C87  add         byte ptr [eax],al  
00B00C89  add         byte ptr [eax],al  
00B00C8B  add         byte ptr [eax],al  
00B00C8D  add         byte ptr [eax],al  
00B00C8F  add         byte ptr [eax],al  
00B00C91  add         byte ptr [eax],al  
00B00C93  add         byte ptr [eax],al  
00B00C95  add         byte ptr [eax],al  
00B00C97  add         byte ptr [eax],al  
00B00C99  add         byte ptr [eax],al  
00B00C9B  add         byte ptr [eax],al  
00B00C9D  add         byte ptr [eax],al  
00B00C9F  add         byte ptr [eax],al  
00B00CA1  add         byte ptr [eax],al  
00B00CA3  add         byte ptr [eax],al  
00B00CA5  add         byte ptr [eax],al  
00B00CA7  add         byte ptr [eax],al  
00B00CA9  add         byte ptr [eax],al  
00B00CAB  add         byte ptr [eax],al  
00B00CAD  add         byte ptr [eax],al  
00B00CAF  add         byte ptr [eax],al  
00B00CB1  add         byte ptr [eax],al  
00B00CB3  add         byte ptr [eax],al  
00B00CB5  add         byte ptr [eax],al  
00B00CB7  add         byte ptr [eax],al  
00B00CB9  add         byte ptr [eax],al  
00B00CBB  add         byte ptr [eax],al  
00B00CBD  add         byte ptr [eax],al  
00B00CBF  add         byte ptr [eax],al  
00B00CC1  add         byte ptr [eax],al  
00B00CC3  add         byte ptr [eax],al  
00B00CC5  add         byte ptr [eax],al  
00B00CC7  add         byte ptr [eax],al  
00B00CC9  add         byte ptr [eax],al  
00B00CCB  add         byte ptr [eax],al  
00B00CCD  add         byte ptr [eax],al  
00B00CCF  add         byte ptr [eax],al  
00B00CD1  add         byte ptr [eax],al  
00B00CD3  add         byte ptr [eax],al  
00B00CD5  add         byte ptr [eax],al  
00B00CD7  add         byte ptr [eax],al  
00B00CD9  add         byte ptr [eax],al  
00B00CDB  add         byte ptr [eax],al  
00B00CDD  add         byte ptr [eax],al  
00B00CDF  add         byte ptr [eax],al  
00B00CE1  add         byte ptr [eax],al  
00B00CE3  add         byte ptr [eax],al  
00B00CE5  add         byte ptr [eax],al  
00B00CE7  add         byte ptr [eax],al  
00B00CE9  add         byte ptr [eax],al  
00B00CEB  add         byte ptr [eax],al  
00B00CED  add         byte ptr [eax],al  
00B00CEF  add         byte ptr [eax],al  
00B00CF1  add         byte ptr [eax],al  
00B00CF3  add         byte ptr [eax],al  
00B00CF5  add         byte ptr [eax],al  
00B00CF7  add         byte ptr [eax],al  
00B00CF9  add         byte ptr [eax],al  
00B00CFB  add         byte ptr [eax],al  
00B00CFD  add         byte ptr [eax],al  
00B00CFF  add         byte ptr [eax],al  
00B00D01  add         byte ptr [eax],al  
00B00D03  add         byte ptr [eax],al  
00B00D05  add         byte ptr [eax],al  
00B00D07  add         byte ptr [eax],al  
00B00D09  add         byte ptr [eax],al  
00B00D0B  add         byte ptr [eax],al  
00B00D0D  add         byte ptr [eax],al  
00B00D0F  add         byte ptr [eax],al  
00B00D11  add         byte ptr [eax],al  
00B00D13  add         byte ptr [eax],al  
00B00D15  add         byte ptr [eax],al  
00B00D17  add         byte ptr [eax],al  
00B00D19  add         byte ptr [eax],al  
00B00D1B  add         byte ptr [eax],al  
00B00D1D  add         byte ptr [eax],al  
00B00D1F  add         byte ptr [eax],al  
00B00D21  add         byte ptr [eax],al  
00B00D23  add         byte ptr [eax],al  
00B00D25  add         byte ptr [eax],al  
00B00D27  add         byte ptr [eax],al  
00B00D29  add         byte ptr [eax],al  
00B00D2B  add         byte ptr [eax],al  
00B00D2D  add         byte ptr [eax],al  
00B00D2F  add         byte ptr [eax],al  
00B00D31  add         byte ptr [eax],al  
00B00D33  add         byte ptr [eax],al  
00B00D35  add         byte ptr [eax],al  
00B00D37  add         byte ptr [eax],al  
00B00D39  add         byte ptr [eax],al  
00B00D3B  add         byte ptr [eax],al  
00B00D3D  add         byte ptr [eax],al  
00B00D3F  add         byte ptr [eax],al  
00B00D41  add         byte ptr [eax],al  
00B00D43  add         byte ptr [eax],al  
00B00D45  add         byte ptr [eax],al  
00B00D47  add         byte ptr [eax],al  
00B00D49  add         byte ptr [eax],al  
00B00D4B  add         byte ptr [eax],al  
00B00D4D  add         byte ptr [eax],al  
00B00D4F  add         byte ptr [eax],al  
00B00D51  add         byte ptr [eax],al  
00B00D53  add         byte ptr [eax],al  
00B00D55  add         byte ptr [eax],al  
00B00D57  add         byte ptr [eax],al  
00B00D59  add         byte ptr [eax],al  
00B00D5B  add         byte ptr [eax],al  
00B00D5D  add         byte ptr [eax],al  
00B00D5F  add         byte ptr [eax],al  
00B00D61  add         byte ptr [eax],al  
00B00D63  add         byte ptr [eax],al  
00B00D65  add         byte ptr [eax],al  
00B00D67  add         byte ptr [eax],al  
00B00D69  add         byte ptr [eax],al  
00B00D6B  add         byte ptr [eax],al  
00B00D6D  add         byte ptr [eax],al  
00B00D6F  add         byte ptr [eax],al  
00B00D71  add         byte ptr [eax],al  
00B00D73  add         byte ptr [eax],al  
00B00D75  add         byte ptr [eax],al  
00B00D77  add         byte ptr [eax],al  
00B00D79  add         byte ptr [eax],al  
00B00D7B  add         byte ptr [eax],al  
00B00D7D  add         byte ptr [eax],al  
00B00D7F  add         byte ptr [eax],al  
00B00D81  add         byte ptr [eax],al  
00B00D83  add         byte ptr [eax],al  
00B00D85  add         byte ptr [eax],al  
00B00D87  add         byte ptr [eax],al  
00B00D89  add         byte ptr [eax],al  
00B00D8B  add         byte ptr [eax],al  
00B00D8D  add         byte ptr [eax],al  
00B00D8F  add         byte ptr [eax],al  
00B00D91  add         byte ptr [eax],al  
00B00D93  add         byte ptr [eax],al  
00B00D95  add         byte ptr [eax],al  
00B00D97  add         byte ptr [eax],al  
00B00D99  add         byte ptr [eax],al  
00B00D9B  add         byte ptr [eax],al  
00B00D9D  add         byte ptr [eax],al  
00B00D9F  add         byte ptr [eax],al  
00B00DA1  add         byte ptr [eax],al  
00B00DA3  add         byte ptr [eax],al  
00B00DA5  add         byte ptr [eax],al  
00B00DA7  add         byte ptr [eax],al  
00B00DA9  add         byte ptr [eax],al  
00B00DAB  add         byte ptr [eax],al  
00B00DAD  add         byte ptr [eax],al  
00B00DAF  add         byte ptr [eax],al  
00B00DB1  add         byte ptr [eax],al  
00B00DB3  add         byte ptr [eax],al  
00B00DB5  add         byte ptr [eax],al  
00B00DB7  add         byte ptr [eax],al  
00B00DB9  add         byte ptr [eax],al  
00B00DBB  add         byte ptr [eax],al  
00B00DBD  add         byte ptr [eax],al  
00B00DBF  add         byte ptr [eax],al  
00B00DC1  add         byte ptr [eax],al  
00B00DC3  add         byte ptr [eax],al  
00B00DC5  add         byte ptr [eax],al  
00B00DC7  add         byte ptr [eax],al  
00B00DC9  add         byte ptr [eax],al  
00B00DCB  add         byte ptr [eax],al  
00B00DCD  add         byte ptr [eax],al  
00B00DCF  add         byte ptr [eax],al  
00B00DD1  add         byte ptr [eax],al  
00B00DD3  add         byte ptr [eax],al  
00B00DD5  add         byte ptr [eax],al  
00B00DD7  add         byte ptr [eax],al  
00B00DD9  add         byte ptr [eax],al  
00B00DDB  add         byte ptr [eax],al  
00B00DDD  add         byte ptr [eax],al  
00B00DDF  add         byte ptr [eax],al  
00B00DE1  add         byte ptr [eax],al  
00B00DE3  add         byte ptr [eax],al  
00B00DE5  add         byte ptr [eax],al  
00B00DE7  add         byte ptr [eax],al  
00B00DE9  add         byte ptr [eax],al  
00B00DEB  add         byte ptr [eax],al  
00B00DED  add         byte ptr [eax],al  
00B00DEF  add         byte ptr [eax],al  
00B00DF1  add         byte ptr [eax],al  
00B00DF3  add         byte ptr [eax],al  
00B00DF5  add         byte ptr [eax],al  
00B00DF7  add         byte ptr [eax],al  
00B00DF9  add         byte ptr [eax],al  
00B00DFB  add         byte ptr [eax],al  
00B00DFD  add         byte ptr [eax],al  
00B00DFF  add         byte ptr [eax],al  
00B00E01  add         byte ptr [eax],al  
00B00E03  add         byte ptr [eax],al  
00B00E05  add         byte ptr [eax],al  
00B00E07  add         byte ptr [eax],al  
00B00E09  add         byte ptr [eax],al  
00B00E0B  add         byte ptr [eax],al  
00B00E0D  add         byte ptr [eax],al  
00B00E0F  add         byte ptr [eax],al  
00B00E11  add         byte ptr [eax],al  
00B00E13  add         byte ptr [eax],al  
00B00E15  add         byte ptr [eax],al  
00B00E17  add         byte ptr [eax],al  
00B00E19  add         byte ptr [eax],al  
00B00E1B  add         byte ptr [eax],al  
00B00E1D  add         byte ptr [eax],al  
00B00E1F  add         byte ptr [eax],al  
00B00E21  add         byte ptr [eax],al  
00B00E23  add         byte ptr [eax],al  
00B00E25  add         byte ptr [eax],al  
00B00E27  add         byte ptr [eax],al  
00B00E29  add         byte ptr [eax],al  
00B00E2B  add         byte ptr [eax],al  
00B00E2D  add         byte ptr [eax],al  
00B00E2F  add         byte ptr [eax],al  
00B00E31  add         byte ptr [eax],al  
00B00E33  add         byte ptr [eax],al  
00B00E35  add         byte ptr [eax],al  
00B00E37  add         byte ptr [eax],al  
00B00E39  add         byte ptr [eax],al  
00B00E3B  add         byte ptr [eax],al  
00B00E3D  add         byte ptr [eax],al  
00B00E3F  add         byte ptr [eax],al  
00B00E41  add         byte ptr [eax],al  
00B00E43  add         byte ptr [eax],al  
00B00E45  add         byte ptr [eax],al  
00B00E47  add         byte ptr [eax],al  
00B00E49  add         byte ptr [eax],al  
00B00E4B  add         byte ptr [eax],al  
00B00E4D  add         byte ptr [eax],al  
00B00E4F  add         byte ptr [eax],al  
00B00E51  add         byte ptr [eax],al  
00B00E53  add         byte ptr [eax],al  
00B00E55  add         byte ptr [eax],al  
00B00E57  add         byte ptr [eax],al  
00B00E59  add         byte ptr [eax],al  
00B00E5B  add         byte ptr [eax],al  
00B00E5D  add         byte ptr [eax],al  
00B00E5F  add         byte ptr [eax],al  
00B00E61  add         byte ptr [eax],al  
00B00E63  add         byte ptr [eax],al  
00B00E65  add         byte ptr [eax],al  
00B00E67  add         byte ptr [eax],al  
00B00E69  add         byte ptr [eax],al  
00B00E6B  add         byte ptr [eax],al  
00B00E6D  add         byte ptr [eax],al  
00B00E6F  add         byte ptr [eax],al  
00B00E71  add         byte ptr [eax],al  
00B00E73  add         byte ptr [eax],al  
00B00E75  add         byte ptr [eax],al  
00B00E77  add         byte ptr [eax],al  
00B00E79  add         byte ptr [eax],al  
00B00E7B  add         byte ptr [eax],al  
00B00E7D  add         byte ptr [eax],al  
00B00E7F  add         byte ptr [eax],al  
00B00E81  add         byte ptr [eax],al  
00B00E83  add         byte ptr [eax],al  
00B00E85  add         byte ptr [eax],al  
00B00E87  add         byte ptr [eax],al  
00B00E89  add         byte ptr [eax],al  
00B00E8B  add         byte ptr [eax],al  
00B00E8D  add         byte ptr [eax],al  
00B00E8F  add         byte ptr [eax],al  
00B00E91  add         byte ptr [eax],al  
00B00E93  add         byte ptr [eax],al  
00B00E95  add         byte ptr [eax],al  
00B00E97  add         byte ptr [eax],al  
00B00E99  add         byte ptr [eax],al  
00B00E9B  add         byte ptr [eax],al  
00B00E9D  add         byte ptr [eax],al  
00B00E9F  add         byte ptr [eax],al  
00B00EA1  add         byte ptr [eax],al  
00B00EA3  add         byte ptr [eax],al  
00B00EA5  add         byte ptr [eax],al  
00B00EA7  add         byte ptr [eax],al  
00B00EA9  add         byte ptr [eax],al  
00B00EAB  add         byte ptr [eax],al  
00B00EAD  add         byte ptr [eax],al  
00B00EAF  add         byte ptr [eax],al  
00B00EB1  add         byte ptr [eax],al  
00B00EB3  add         byte ptr [eax],al  
00B00EB5  add         byte ptr [eax],al  
00B00EB7  add         byte ptr [eax],al  
00B00EB9  add         byte ptr [eax],al  
00B00EBB  add         byte ptr [eax],al  
00B00EBD  add         byte ptr [eax],al  
00B00EBF  add         byte ptr [eax],al  
00B00EC1  add         byte ptr [eax],al  
00B00EC3  add         byte ptr [eax],al  
00B00EC5  add         byte ptr [eax],al  
00B00EC7  add         byte ptr [eax],al  
00B00EC9  add         byte ptr [eax],al  
00B00ECB  add         byte ptr [eax],al  
00B00ECD  add         byte ptr [eax],al  
00B00ECF  add         byte ptr [eax],al  
00B00ED1  add         byte ptr [eax],al  
00B00ED3  add         byte ptr [eax],al  
00B00ED5  add         byte ptr [eax],al  
00B00ED7  add         byte ptr [eax],al  
00B00ED9  add         byte ptr [eax],al  
00B00EDB  add         byte ptr [eax],al  
00B00EDD  add         byte ptr [eax],al  
00B00EDF  add         byte ptr [eax],al  
00B00EE1  add         byte ptr [eax],al  
00B00EE3  add         byte ptr [eax],al  
00B00EE5  add         byte ptr [eax],al  
00B00EE7  add         byte ptr [eax],al  
00B00EE9  add         byte ptr [eax],al  
00B00EEB  add         byte ptr [eax],al  
00B00EED  add         byte ptr [eax],al  
00B00EEF  add         byte ptr [eax],al  
00B00EF1  add         byte ptr [eax],al  
00B00EF3  add         byte ptr [eax],al  
00B00EF5  add         byte ptr [eax],al  
00B00EF7  add         byte ptr [eax],al  
00B00EF9  add         byte ptr [eax],al  
00B00EFB  add         byte ptr [eax],al  
00B00EFD  add         byte ptr [eax],al  
00B00EFF  add         byte ptr [eax],al  
00B00F01  add         byte ptr [eax],al  
00B00F03  add         byte ptr [eax],al  
00B00F05  add         byte ptr [eax],al  
00B00F07  add         byte ptr [eax],al  
00B00F09  add         byte ptr [eax],al  
00B00F0B  add         byte ptr [eax],al  
00B00F0D  add         byte ptr [eax],al  
00B00F0F  add         byte ptr [eax],al  
00B00F11  add         byte ptr [eax],al  
00B00F13  add         byte ptr [eax],al  
00B00F15  add         byte ptr [eax],al  
00B00F17  add         byte ptr [eax],al  
00B00F19  add         byte ptr [eax],al  
00B00F1B  add         byte ptr [eax],al  
00B00F1D  add         byte ptr [eax],al  
00B00F1F  add         byte ptr [eax],al  
00B00F21  add         byte ptr [eax],al  
00B00F23  add         byte ptr [eax],al  
00B00F25  add         byte ptr [eax],al  
00B00F27  add         byte ptr [eax],al  
00B00F29  add         byte ptr [eax],al  
00B00F2B  add         byte ptr [eax],al  
00B00F2D  add         byte ptr [eax],al  
00B00F2F  add         byte ptr [eax],al  
00B00F31  add         byte ptr [eax],al  
00B00F33  add         byte ptr [eax],al  
00B00F35  add         byte ptr [eax],al  
00B00F37  add         byte ptr [eax],al  
00B00F39  add         byte ptr [eax],al  
00B00F3B  add         byte ptr [eax],al  
00B00F3D  add         byte ptr [eax],al  
00B00F3F  add         byte ptr [eax],al  
00B00F41  add         byte ptr [eax],al  
00B00F43  add         byte ptr [eax],al  
00B00F45  add         byte ptr [eax],al  
00B00F47  add         byte ptr [eax],al  
00B00F49  add         byte ptr [eax],al  
00B00F4B  add         byte ptr [eax],al  
00B00F4D  add         byte ptr [eax],al  
00B00F4F  add         byte ptr [eax],al  
00B00F51  add         byte ptr [eax],al  
00B00F53  add         byte ptr [eax],al  
00B00F55  add         byte ptr [eax],al  
00B00F57  add         byte ptr [eax],al  
00B00F59  add         byte ptr [eax],al  
00B00F5B  add         byte ptr [eax],al  
00B00F5D  add         byte ptr [eax],al  
00B00F5F  add         byte ptr [eax],al  
00B00F61  add         byte ptr [eax],al  
00B00F63  add         byte ptr [eax],al  
00B00F65  add         byte ptr [eax],al  
00B00F67  add         byte ptr [eax],al  
00B00F69  add         byte ptr [eax],al  
00B00F6B  add         byte ptr [eax],al  
00B00F6D  add         byte ptr [eax],al  
00B00F6F  add         byte ptr [eax],al  
00B00F71  add         byte ptr [eax],al  
00B00F73  add         byte ptr [eax],al  
00B00F75  add         byte ptr [eax],al  
00B00F77  add         byte ptr [eax],al  
00B00F79  add         byte ptr [eax],al  
00B00F7B  add         byte ptr [eax],al  
00B00F7D  add         byte ptr [eax],al  
00B00F7F  add         byte ptr [eax],al  
00B00F81  add         byte ptr [eax],al  
00B00F83  add         byte ptr [eax],al  
00B00F85  add         byte ptr [eax],al  
00B00F87  add         byte ptr [eax],al  
00B00F89  add         byte ptr [eax],al  
00B00F8B  add         byte ptr [eax],al  
00B00F8D  add         byte ptr [eax],al  
00B00F8F  add         byte ptr [eax],al  
00B00F91  add         byte ptr [eax],al  
00B00F93  add         byte ptr [eax],al  
00B00F95  add         byte ptr [eax],al  
00B00F97  add         byte ptr [eax],al  
00B00F99  add         byte ptr [eax],al  
00B00F9B  add         byte ptr [eax],al  
00B00F9D  add         byte ptr [eax],al  
00B00F9F  add         byte ptr [eax],al  
00B00FA1  add         byte ptr [eax],al  
00B00FA3  add         byte ptr [eax],al  
00B00FA5  add         byte ptr [eax],al  
00B00FA7  add         byte ptr [eax],al  
00B00FA9  add         byte ptr [eax],al  
00B00FAB  add         byte ptr [eax],al  
00B00FAD  add         byte ptr [eax],al  
00B00FAF  add         byte ptr [eax],al  
00B00FB1  add         byte ptr [eax],al  
00B00FB3  add         byte ptr [eax],al  
00B00FB5  add         byte ptr [eax],al  
00B00FB7  add         byte ptr [eax],al  
00B00FB9  add         byte ptr [eax],al  
00B00FBB  add         byte ptr [eax],al  
00B00FBD  add         byte ptr [eax],al  
00B00FBF  add         byte ptr [eax],al  
00B00FC1  add         byte ptr [eax],al  
00B00FC3  add         byte ptr [eax],al  
00B00FC5  add         byte ptr [eax],al  
00B00FC7  add         byte ptr [eax],al  
00B00FC9  add         byte ptr [eax],al  
00B00FCB  add         byte ptr [eax],al  
00B00FCD  add         byte ptr [eax],al  
00B00FCF  add         byte ptr [eax],al  
00B00FD1  add         byte ptr [eax],al  
00B00FD3  add         byte ptr [eax],al  
00B00FD5  add         byte ptr [eax],al  
00B00FD7  add         byte ptr [eax],al  
00B00FD9  add         byte ptr [eax],al  
00B00FDB  add         byte ptr [eax],al  
00B00FDD  add         byte ptr [eax],al  
00B00FDF  add         byte ptr [eax],al  
00B00FE1  add         byte ptr [eax],al  
00B00FE3  add         byte ptr [eax],al  
00B00FE5  add         byte ptr [eax],al  
00B00FE7  add         byte ptr [eax],al  
00B00FE9  add         byte ptr [eax],al  
00B00FEB  add         byte ptr [eax],al  
00B00FED  add         byte ptr [eax],al  
00B00FEF  add         byte ptr [eax],al  
00B00FF1  add         byte ptr [eax],al  
00B00FF3  add         byte ptr [eax],al  
00B00FF5  add         byte ptr [eax],al  
00B00FF7  add         byte ptr [eax],al  
00B00FF9  add         byte ptr [eax],al  
00B00FFB  add         byte ptr [eax],al  
00B00FFD  add         byte ptr [eax],al  
00B00FFF  add         ah,cl  
00B01001  int         3  
00B01002  int         3  
00B01003  int         3  
00B01004  int         3  
__alloca_probe:
00B01005  jmp         _chkstk (0B020A0h)  
___report_gsfailure:
00B0100A  jmp         __report_gsfailure (0B02E20h)  
___isa_available_init:
00B0100F  jmp         __isa_available_init (0B04CF0h)  
__initialize_invalid_parameter_handler:
00B01014  jmp         _initialize_invalid_parameter_handler (0B03CB0h)  
__crt_atexit:
00B01019  jmp         __crt_atexit (0B05201h)  
_InitializeSListHead@4:
00B0101E  jmp         _InitializeSListHead@4 (0B05279h)  
__cexit:
00B01023  jmp         __cexit (0B051B3h)  
_ReadNoFence:
00B01028  jmp         ReadNoFence (0B04200h)  
_IsDebuggerPresent@0:
00B0102D  jmp         _IsDebuggerPresent@0 (0B05231h)  
_GetLastError@0:
00B01032  jmp         _GetLastError@0 (0B0528Bh)  
___scrt_initialize_onexit_tables:
00B01037  jmp         __scrt_initialize_onexit_tables (0B03680h)  
__get_startup_file_mode:
00B0103C  jmp         _get_startup_file_mode (0B03C00h)  
_RTC_GetErrorFunc:
00B01041  jmp         _RTC_GetErrorFunc (0B03200h)  
@_RTC_CheckStackVars2@12:
00B01046  jmp         _RTC_CheckStackVars2 (0B01DF0h)  
_printf:
00B0104B  jmp         printf (0B01D10h)  
___scrt_initialize_winrt:
00B01050  jmp         __scrt_initialize_winrt (0B03F70h)  
__get_startup_commit_mode:
00B01055  jmp         _get_startup_commit_mode (0B03BF0h)  
_GetCurrentProcess@0:
00B0105A  jmp         _GetCurrentProcess@0 (0B05255h)  
_terminate:
00B0105F  jmp         _terminate (0B05213h)  
_IsProcessorFeaturePresent@4:
00B01064  jmp         _IsProcessorFeaturePresent@4 (0B05261h)  
___report_securityfailureEx:
00B01069  jmp         __report_securityfailureEx (0B03090h)  
___vcrt_GetModuleFileNameW:
00B0106E  jmp         ___vcrt_GetModuleFileNameW (0B0513Bh)  
__initterm_e:
00B01073  jmp         __initterm_e (0B0518Fh)  
___scrt_exe_initialize_mta:
00B01078  jmp         __scrt_stub_for_initialize_mta (0B04050h)  
___std_type_info_destroy_list:
00B0107D  jmp         ___std_type_info_destroy_list (0B0511Dh)  
_HeapAlloc@12:
00B01082  jmp         _HeapAlloc@12 (0B05291h)  
___acrt_initialize:
00B01087  jmp         __scrt_stub_for_acrt_initialize (0B052C0h)  
___acrt_uninitialize:
00B0108C  jmp         __scrt_stub_for_acrt_uninitialize (0B052F0h)  
__RTC_UninitUse:
00B01091  jmp         _RTC_UninitUse (0B02C90h)  
_RTC_AllocaFailure:
00B01096  jmp         _RTC_AllocaFailure (0B02650h)  
___scrt_is_user_matherr_present:
00B0109B  jmp         __scrt_is_user_matherr_present (0B03D30h)  
___scrt_release_startup_lock:
00B010A0  jmp         __scrt_release_startup_lock (0B03910h)  
___acrt_uninitialize_critical:
00B010A5  jmp         __scrt_stub_for_acrt_uninitialize_critical (0B05300h)  
__scrt_uninitialize_type_info:
00B010AA  jmp         __scrt_uninitialize_type_info (0B03C50h)  
___acrt_thread_detach:
00B010AF  jmp         __scrt_stub_for_acrt_thread_detach (0B052E0h)  
__register_thread_local_exe_atexit_callback:
00B010B4  jmp         __register_thread_local_exe_atexit_callback (0B051BFh)  
___scrt_stub_for_is_c_termination_complete:
00B010B9  jmp         __scrt_stub_for_is_c_termination_complete (0B05310h)  
___raise_securityfailure:
00B010BE  jmp         __raise_securityfailure (0B02DE0h)  
___acrt_thread_attach:
00B010C3  jmp         __scrt_stub_for_acrt_thread_attach (0B052D0h)  
__CrtDbgReportW:
00B010C8  jmp         __CrtDbgReportW (0B0515Fh)  
___acrt_thread_attach:
00B010CD  jmp         __scrt_stub_for_acrt_thread_attach (0B052D0h)  
__initialize_denormal_control:
00B010D2  jmp         _initialize_denormal_control (0B03CC0h)  
___report_securityfailure:
00B010D7  jmp         __report_securityfailure (0B02F80h)  
_heapPermutation:
00B010DC  jmp         heapPermutation (0B01960h)  
___scrt_is_ucrt_dll_in_use:
00B010E1  jmp         __scrt_is_ucrt_dll_in_use (0B050F0h)  
___scrt_dllmain_crt_thread_attach:
00B010E6  jmp         __scrt_dllmain_crt_thread_attach (0B03500h)  
__execute_onexit_table:
00B010EB  jmp         __execute_onexit_table (0B051FBh)  
___acrt_uninitialize:
00B010F0  jmp         __scrt_stub_for_acrt_uninitialize (0B052F0h)  
__c_exit:
00B010F5  jmp         __c_exit (0B051B9h)  
_GetModuleHandleW@4:
00B010FA  jmp         _GetModuleHandleW@4 (0B05285h)  
_memset:
00B010FF  jmp         _memset (0B0512Fh)  
___scrt_dllmain_before_initialize_c:
00B01104  jmp         __scrt_dllmain_before_initialize_c (0B034D0h)  
__should_initialize_environment:
00B01109  jmp         _should_initialize_environment (0B03C70h)  
__initialize_onexit_table:
00B0110E  jmp         __initialize_onexit_table (0B051EFh)  
_addToArr:
00B01113  jmp         addToArr (0B01840h)  
_GetStartupInfoW@4:
00B01118  jmp         _GetStartupInfoW@4 (0B0527Fh)  
__crt_debugger_hook:
00B0111D  jmp         _crt_debugger_hook (0B04100h)  
___vcrt_GetModuleHandleW:
00B01122  jmp         ___vcrt_GetModuleHandleW (0B05141h)  
___scrt_initialize_crt:
00B01127  jmp         __scrt_initialize_crt (0B03620h)  
_MultiByteToWideChar@24:
00B0112C  jmp         _MultiByteToWideChar@24 (0B0523Dh)  
_SetUnhandledExceptionFilter@4:
00B01131  jmp         _SetUnhandledExceptionFilter@4 (0B0524Fh)  
__get_startup_thread_locale_mode:
00B01136  jmp         _get_startup_thread_locale_mode (0B03C20h)  
___current_exception:
00B0113B  jmp         ___current_exception (0B05123h)  
__scrt_file_policy::set_commode:
00B01140  jmp         __scrt_file_policy::set_commode (0B02550h)  
___acrt_initialize:
00B01145  jmp         __scrt_stub_for_acrt_initialize (0B052C0h)  
_strcat_s:
00B0114A  jmp         _strcat_s (0B051DDh)  
___stdio_common_vsprintf_s:
00B0114F  jmp         ___stdio_common_vsprintf_s (0B051E3h)  
__RTC_Initialize:
00B01154  jmp         _RTC_Initialize (0B04120h)  
__exit:
00B01159  jmp         __exit (0B0519Bh)  
___p___argc:
00B0115E  jmp         ___p___argc (0B051A7h)  
__wmakepath_s:
00B01163  jmp         __wmakepath_s (0B05219h)  
___report_rangecheckfailure:
00B01168  jmp         __report_rangecheckfailure (0B02F70h)  
___scrt_unhandled_exception_filter@4:
00B0116D  jmp         __scrt_unhandled_exception_filter (0B04060h)  
_RTC_GetErrorFuncW:
00B01172  jmp         _RTC_GetErrorFuncW (0B03210h)  
___p__commode:
00B01177  jmp         ___p__commode (0B051D1h)  
__vsprintf_s_l:
00B0117C  jmp         _vsprintf_s_l (0B02D70h)  
@_RTC_AllocaHelper@12:
00B01181  jmp         _RTC_AllocaHelper (0B01DB0h)  
___local_stdio_printf_options:
00B01186  jmp         __local_stdio_printf_options (0B01750h)  
_WideCharToMultiByte@32:
00B0118B  jmp         _WideCharToMultiByte@32 (0B05243h)  
__RTC_Shutdown:
00B01190  jmp         _RTC_Shutdown (0B02080h)  
___scrt_dllmain_uninitialize_critical:
00B01195  jmp         __scrt_dllmain_uninitialize_critical (0B03600h)  
__set_new_mode:
00B0119A  jmp         __set_new_mode (0B051CBh)  
___scrt_get_dyn_tls_init_callback:
00B0119F  jmp         __scrt_get_dyn_tls_init_callback (0B03D60h)  
__controlfp_s:
00B011A4  jmp         __controlfp_s (0B0520Dh)  
_RTC_StackFailure:
00B011A9  jmp         _RTC_StackFailure (0B027E0h)  
@_guard_check_icall_nop@4:
00B011AE  jmp         _guard_check_icall_nop (0B041F0h)  
___setusermatherr:
00B011B3  jmp         ___setusermatherr (0B05171h)  
__vfprintf_l:
00B011B8  jmp         _vfprintf_l (0B017B0h)  
_GetSystemTimeAsFileTime@4:
00B011BD  jmp         _GetSystemTimeAsFileTime@4 (0B05273h)  
__filter_x86_sse2_floating_point_exception:
00B011C2  jmp         _filter_x86_sse2_floating_point_exception_default (0B05320h)  
___scrt_dllmain_after_initialize_c:
00B011C7  jmp         __scrt_dllmain_after_initialize_c (0B03490h)  
___scrt_is_nonwritable_in_current_image:
00B011CC  jmp         __scrt_is_nonwritable_in_current_image (0B03790h)  
_GetCurrentProcessId@0:
00B011D1  jmp         _GetCurrentProcessId@0 (0B0526Dh)  
__initterm:
00B011D6  jmp         __initterm (0B05189h)  
__JustMyCode_Default:
00B011DB  jmp         _JustMyCode_Default (0B01740h)  
__RTC_SetErrorFunc:
00B011E0  jmp         _RTC_SetErrorFunc (0B03250h)  
___scrt_is_managed_app:
00B011E5  jmp         __scrt_is_managed_app (0B03F80h)  
__CrtDbgReport:
00B011EA  jmp         __CrtDbgReport (0B05159h)  
__guard_icall_checks_enforced:
00B011EF  jmp         _guard_icall_checks_enforced (0B04240h)  
@__security_check_cookie@4:
00B011F4  jmp         __security_check_cookie (0B02000h)  
___current_exception_context:
00B011F9  jmp         ___current_exception_context (0B05129h)  
_at_quick_exit:
00B011FE  jmp         at_quick_exit (0B03A10h)  
_TerminateProcess@8:
00B01203  jmp         _TerminateProcess@8 (0B0525Bh)  
__seh_filter_dll:
00B01208  jmp         __seh_filter_dll (0B051E9h)  
__get_startup_new_mode:
00B0120D  jmp         _get_startup_new_mode (0B03C10h)  
__RTC_SetErrorFuncW:
00B01212  jmp         _RTC_SetErrorFuncW (0B03280h)  
___stdio_common_vfprintf:
00B01217  jmp         ___stdio_common_vfprintf (0B05153h)  
___scrt_get_show_window_mode:
00B0121C  jmp         __scrt_get_show_window_mode (0B03F10h)  
___acrt_thread_attach:
00B01221  jmp         __scrt_stub_for_acrt_thread_attach (0B052D0h)  
@__CheckForDebuggerJustMyCode@4:
00B01226  jmp         __CheckForDebuggerJustMyCode (0B01FB0h)  
_atexit:
00B0122B  jmp         atexit (0B03A60h)  
__RTC_CheckEsp:
00B01230  jmp         _RTC_CheckEsp (0B01F70h)  
___scrt_dllmain_exception_filter:
00B01235  jmp         __scrt_dllmain_exception_filter (0B03560h)  
__onexit:
00B0123A  jmp         _onexit (0B03990h)  
___scrt_stub_for_is_c_termination_complete:
00B0123F  jmp         __scrt_stub_for_is_c_termination_complete (0B05310h)  
__scrt_narrow_environment_policy::initialize_environment:
00B01244  jmp         __scrt_narrow_environment_policy::initialize_environment (0B024D0h)  
_QueryPerformanceCounter@4:
00B01249  jmp         _QueryPerformanceCounter@4 (0B05267h)  
___scrt_get_dyn_tls_dtor_callback:
00B0124E  jmp         __scrt_get_dyn_tls_dtor_callback (0B03D70h)  
@_RTC_CheckStackVars@8:
00B01253  jmp         _RTC_CheckStackVars (0B01F00h)  
___scrt_uninitialize_crt:
00B01258  jmp         __scrt_uninitialize_crt (0B03940h)  
_FreeLibrary@4:
00B0125D  jmp         _FreeLibrary@4 (0B052A9h)  
__CRT_RTC_INITW:
00B01262  jmp         _CRT_RTC_INITW (0B02030h)  
__crt_at_quick_exit:
00B01267  jmp         __crt_at_quick_exit (0B05207h)  
_exit:
00B0126C  jmp         _exit (0B05195h)  
__initialize_default_precision:
00B01271  jmp         _initialize_default_precision (0B03C80h)  
___acrt_thread_detach:
00B01276  jmp         __scrt_stub_for_acrt_thread_detach (0B052E0h)  
__wsplitpath_s:
00B0127B  jmp         __wsplitpath_s (0B0521Fh)  
_RTC_Failure:
00B01280  jmp         _RTC_Failure (0B02770h)  
__CRT_RTC_INIT:
00B01285  jmp         _CRT_RTC_INIT (0B02020h)  
__configure_narrow_argv:
00B0128A  jmp         __configure_narrow_argv (0B05177h)  
__filter_x86_sse2_floating_point_exception:
00B0128F  jmp         _filter_x86_sse2_floating_point_exception_default (0B05320h)  
__scrt_file_policy::set_fmode:
00B01294  jmp         __scrt_file_policy::set_fmode (0B02570h)  
_UnhandledExceptionFilter@4:
00B01299  jmp         _UnhandledExceptionFilter@4 (0B05249h)  
___acrt_iob_func:
00B0129E  jmp         ___acrt_iob_func (0B0514Dh)  
___acrt_uninitialize:
00B012A3  jmp         __scrt_stub_for_acrt_uninitialize (0B052F0h)  
_sprintf_s:
00B012A8  jmp         sprintf_s (0B02DB0h)  
___acrt_thread_detach:
00B012AD  jmp         __scrt_stub_for_acrt_thread_detach (0B052E0h)  
__set_fmode:
00B012B2  jmp         __set_fmode (0B051A1h)  
___scrt_initialize_mta:
00B012B7  jmp         __scrt_initialize_mta (0B03F60h)  
__RTC_Terminate:
00B012BC  jmp         _RTC_Terminate (0B04160h)  
_main:
00B012C1  jmp         main (0B01AD0h)  
___local_stdio_scanf_options:
00B012C6  jmp         __local_stdio_scanf_options (0B03CD0h)  
___scrt_dllmain_uninitialize_c:
00B012CB  jmp         __scrt_dllmain_uninitialize_c (0B035C0h)  
___acrt_uninitialize_critical:
00B012D0  jmp         __scrt_stub_for_acrt_uninitialize_critical (0B05300h)  
__RTC_InitBase:
00B012D5  jmp         _RTC_InitBase (0B02040h)  
___security_init_cookie:
00B012DA  jmp         __security_init_cookie (0B03B30h)  
_strcpy_s:
00B012DF  jmp         _strcpy_s (0B051D7h)  
__RTC_NumErrors:
00B012E4  jmp         _RTC_NumErrors (0B03240h)  
___vcrt_LoadLibraryExW:
00B012E9  jmp         ___vcrt_LoadLibraryExW (0B05147h)  
___acrt_initialize:
00B012EE  jmp         __scrt_stub_for_acrt_initialize (0B052C0h)  
___p___argv:
00B012F3  jmp         ___p___argv (0B051ADh)  
___scrt_fastfail:
00B012F8  jmp         __scrt_fastfail (0B03D80h)  
__scrt_initialize_type_info:
00B012FD  jmp         __scrt_initialize_type_info (0B03C30h)  
__register_onexit_function:
00B01302  jmp         __register_onexit_function (0B051F5h)  
__get_startup_argv_mode:
00B01307  jmp         _get_startup_argv_mode (0B03BE0h)  
_GetCurrentThreadId@0:
00B0130C  jmp         _GetCurrentThreadId@0 (0B0522Bh)  
_ReadPointerNoFence:
00B01311  jmp         ReadPointerNoFence (0B04220h)  
__matherr:
00B01316  jmp         _matherr (0B03BD0h)  
_factorial:
00B0131B  jmp         factorial (0B018E0h)  
00B01320  ?? ?????? 
00B01321  ?? ?????? 
00B01322  ?? ?????? 
00B01323  ?? ?????? 
00B01324  ?? ?????? 
00B01325  ?? ?????? 
00B01326  ?? ?????? 
00B01327  ?? ?????? 
00B01328  ?? ?????? 
00B01329  ?? ?????? 
00B0132A  ?? ?????? 
00B0132B  ?? ?????? 
00B0132C  ?? ?????? 
00B0132D  ?? ?????? 
00B0132E  ?? ?????? 
00B0132F  ?? ?????? 
00B01330  ?? ?????? 
00B01331  ?? ?????? 
00B01332  ?? ?????? 
00B01333  ?? ?????? 
00B01334  ?? ?????? 
00B01335  ?? ?????? 
00B01336  ?? ?????? 
00B01337  ?? ?????? 
00B01338  add         cl,ch  
00B0133A  ?? ?????? 
00B0133B  ?? ?????? 
00B0133C  ?? ?????? 
00B0133D  ?? ?????? 
00B0133E  ?? ?????? 
00B0133F  ?? ?????? 
00B01340  ?? ?????? 
00B01341  ?? ?????? 
00B01342  ?? ?????? 
00B01343  ?? ?????? 
00B01344  ?? ?????? 
00B01345  ?? ?????? 
00B01346  ?? ?????? 
00B01347  ?? ?????? 
00B01348  ?? ?????? 
00B01349  ?? ?????? 
00B0134A  ?? ?????? 
00B0134B  ?? ?????? 
00B0134C  ?? ?????? 
00B0134D  ?? ?????? 
00B0134E  ?? ?????? 
00B0134F  ?? ?????? 
00B01350  ?? ?????? 
00B01351  add         cl,ch  
00B01353  cmp         dword ptr [edx],edx  
00B01355  ?? ?????? 
00B01356  ?? ?????? 
00B01357  ?? ?????? 
00B01358  ?? ?????? 
00B01359  ?? ?????? 
00B0135A  ?? ?????? 
00B0135B  ?? ?????? 
00B0135C  ?? ?????? 
00B0135D  ?? ?????? 
00B0135E  ?? ?????? 
00B0135F  ?? ?????? 
00B01360  ?? ?????? 
00B01361  ?? ?????? 
00B01362  ?? ?????? 
00B01363  ?? ?????? 
00B01364  ?? ?????? 
00B01365  ?? ?????? 
00B01366  ?? ?????? 
00B01367  ?? ?????? 
00B01368  ?? ?????? 
00B01369  ?? ?????? 
00B0136A  ?? ?????? 
00B0136B  ?? ?????? 
00B0136C  ?? ?????? 
00B0136D  sub         al,0  
00B0136F  ?? ?????? 
00B01370  ?? ?????? 
00B01371  ?? ?????? 
00B01372  ?? ?????? 
00B01373  ?? ?????? 
00B01374  ?? ?????? 
00B01375  ?? ?????? 
00B01376  ?? ?????? 
00B01377  ?? ?????? 
00B01378  ?? ?????? 
00B01379  ?? ?????? 
00B0137A  ?? ?????? 
00B0137B  ?? ?????? 
00B0137C  ?? ?????? 
00B0137D  ?? ?????? 
00B0137E  ?? ?????? 
00B0137F  ?? ?????? 
00B01380  ?? ?????? 
00B01381  ?? ?????? 
00B01382  ?? ?????? 
00B01383  ?? ?????? 
00B01384  ?? ?????? 
00B01385  ?? ?????? 
00B01386  ?? ?????? 
00B01387  ?? ?????? 
00B01388  ?? ?????? 
00B01389  ?? ?????? 
00B0138A  ?? ?????? 
00B0138B  ?? ?????? 
00B0138C  ?? ?????? 
00B0138D  ?? ?????? 
00B0138E  ?? ?????? 
00B0138F  ?? ?????? 
00B01390  ?? ?????? 
00B01391  ?? ?????? 
00B01392  ?? ?????? 
00B01393  ?? ?????? 
00B01394  ?? ?????? 
00B01395  ?? ?????? 
00B01396  ?? ?????? 
00B01397  ?? ?????? 
00B01398  ?? ?????? 
00B01399  ?? ?????? 
00B0139A  ?? ?????? 
00B0139B  ?? ?????? 
00B0139C  ?? ?????? 
00B0139D  ?? ?????? 
00B0139E  ?? ?????? 
00B0139F  ?? ?????? 
00B013A0  ?? ?????? 
00B013A1  add         ah,cl  
00B013A3  int         3  
00B013A4  int         3  
00B013A5  int         3  
00B013A6  int         3  
00B013A7  int         3  
00B013A8  int         3  
00B013A9  int         3  
00B013AA  int         3  
00B013AB  int         3  
00B013AC  int         3  
00B013AD  int         3  
00B013AE  int         3  
00B013AF  int         3  
00B013B0  int         3  
00B013B1  int         3  
00B013B2  int         3  
00B013B3  int         3  
00B013B4  int         3  
00B013B5  int         3  
00B013B6  int         3  
00B013B7  int         3  
00B013B8  int         3  
00B013B9  int         3  
00B013BA  int         3  
00B013BB  int         3  
00B013BC  int         3  
00B013BD  int         3  
00B013BE  int         3  
00B013BF  int         3  
00B013C0  int         3  
00B013C1  int         3  
00B013C2  int         3  
00B013C3  int         3  
00B013C4  int         3  
00B013C5  int         3  
00B013C6  int         3  
00B013C7  int         3  
00B013C8  int         3  
00B013C9  int         3  
00B013CA  int         3  
00B013CB  int         3  
00B013CC  int         3  
00B013CD  int         3  
00B013CE  int         3  
00B013CF  int         3  
00B013D0  int         3  
00B013D1  int         3  
00B013D2  int         3  
00B013D3  int         3  
00B013D4  int         3  
00B013D5  int         3  
00B013D6  int         3  
00B013D7  int         3  
00B013D8  int         3  
00B013D9  int         3  
00B013DA  int         3  
00B013DB  int         3  
00B013DC  int         3  
00B013DD  int         3  
00B013DE  int         3  
00B013DF  int         3  
00B013E0  int         3  
00B013E1  int         3  
00B013E2  int         3  
00B013E3  int         3  
00B013E4  int         3  
00B013E5  int         3  
00B013E6  int         3  
00B013E7  int         3  
00B013E8  int         3  
00B013E9  int         3  
00B013EA  int         3  
00B013EB  int         3  
00B013EC  int         3  
00B013ED  int         3  
00B013EE  int         3  
00B013EF  int         3  
00B013F0  int         3  
00B013F1  int         3  
00B013F2  int         3  
00B013F3  int         3  
00B013F4  int         3  
00B013F5  int         3  
00B013F6  int         3  
00B013F7  int         3  
00B013F8  int         3  
00B013F9  int         3  
00B013FA  int         3  
00B013FB  int         3  
00B013FC  int         3  
00B013FD  int         3  
00B013FE  int         3  
00B013FF  int         3  
00B01400  int         3  
00B01401  int         3  
00B01402  int         3  
00B01403  int         3  
00B01404  int         3  
00B01405  int         3  
00B01406  int         3  
00B01407  int         3  
00B01408  int         3  
00B01409  int         3  
00B0140A  int         3  
00B0140B  int         3  
00B0140C  int         3  
00B0140D  int         3  
00B0140E  int         3  
00B0140F  int         3  
00B01410  int         3  
00B01411  int         3  
00B01412  int         3  
00B01413  int         3  
00B01414  int         3  
00B01415  int         3  
00B01416  int         3  
00B01417  int         3  
00B01418  int         3  
00B01419  int         3  
00B0141A  int         3  
00B0141B  int         3  
00B0141C  int         3  
00B0141D  int         3  
00B0141E  int         3  
00B0141F  int         3  
00B01420  int         3  
00B01421  int         3  
00B01422  int         3  
00B01423  int         3  
00B01424  int         3  
00B01425  int         3  
00B01426  int         3  
00B01427  int         3  
00B01428  int         3  
00B01429  int         3  
00B0142A  int         3  
00B0142B  int         3  
00B0142C  int         3  
00B0142D  int         3  
00B0142E  int         3  
00B0142F  int         3  
00B01430  int         3  
00B01431  int         3  
00B01432  int         3  
00B01433  int         3  
00B01434  int         3  
00B01435  int         3  
00B01436  int         3  
00B01437  int         3  
00B01438  int         3  
00B01439  int         3  
00B0143A  int         3  
00B0143B  int         3  
00B0143C  int         3  
00B0143D  int         3  
00B0143E  int         3  
00B0143F  int         3  
00B01440  int         3  
00B01441  int         3  
00B01442  int         3  
00B01443  int         3  
00B01444  int         3  
00B01445  int         3  
00B01446  int         3  
00B01447  int         3  
00B01448  int         3  
00B01449  int         3  
00B0144A  int         3  
00B0144B  int         3  
00B0144C  int         3  
00B0144D  int         3  
00B0144E  int         3  
00B0144F  int         3  
00B01450  int         3  
00B01451  int         3  
00B01452  int         3  
00B01453  int         3  
00B01454  int         3  
00B01455  int         3  
00B01456  int         3  
00B01457  int         3  
00B01458  int         3  
00B01459  int         3  
00B0145A  int         3  
00B0145B  int         3  
00B0145C  int         3  
00B0145D  int         3  
00B0145E  int         3  
00B0145F  int         3  
00B01460  int         3  
00B01461  int         3  
00B01462  int         3  
00B01463  int         3  
00B01464  int         3  
00B01465  int         3  
00B01466  int         3  
00B01467  int         3  
00B01468  int         3  
00B01469  int         3  
00B0146A  int         3  
00B0146B  int         3  
00B0146C  int         3  
00B0146D  int         3  
00B0146E  int         3  
00B0146F  int         3  
00B01470  int         3  
00B01471  int         3  
00B01472  int         3  
00B01473  int         3  
00B01474  int         3  
00B01475  int         3  
00B01476  int         3  
00B01477  int         3  
00B01478  int         3  
00B01479  int         3  
00B0147A  int         3  
00B0147B  int         3  
00B0147C  int         3  
00B0147D  int         3  
00B0147E  int         3  
00B0147F  int         3  
00B01480  int         3  
00B01481  int         3  
00B01482  int         3  
00B01483  int         3  
00B01484  int         3  
00B01485  int         3  
00B01486  int         3  
00B01487  int         3  
00B01488  int         3  
00B01489  int         3  
00B0148A  int         3  
00B0148B  int         3  
00B0148C  int         3  
00B0148D  int         3  
00B0148E  int         3  
00B0148F  int         3  
00B01490  int         3  
00B01491  int         3  
00B01492  int         3  
00B01493  int         3  
00B01494  int         3  
00B01495  int         3  
00B01496  int         3  
00B01497  int         3  
00B01498  int         3  
00B01499  int         3  
00B0149A  int         3  
00B0149B  int         3  
00B0149C  int         3  
00B0149D  int         3  
00B0149E  int         3  
00B0149F  int         3  
00B014A0  int         3  
00B014A1  int         3  
00B014A2  int         3  
00B014A3  int         3  
00B014A4  int         3  
00B014A5  int         3  
00B014A6  int         3  
00B014A7  int         3  
00B014A8  int         3  
00B014A9  int         3  
00B014AA  int         3  
00B014AB  int         3  
00B014AC  int         3  
00B014AD  int         3  
00B014AE  int         3  
00B014AF  int         3  
00B014B0  int         3  
00B014B1  int         3  
00B014B2  int         3  
00B014B3  int         3  
00B014B4  int         3  
00B014B5  int         3  
00B014B6  int         3  
00B014B7  int         3  
00B014B8  int         3  
00B014B9  int         3  
00B014BA  int         3  
00B014BB  int         3  
00B014BC  int         3  
00B014BD  int         3  
00B014BE  int         3  
00B014BF  int         3  
00B014C0  int         3  
00B014C1  int         3  
00B014C2  int         3  
00B014C3  int         3  
00B014C4  int         3  
00B014C5  int         3  
00B014C6  int         3  
00B014C7  int         3  
00B014C8  int         3  
00B014C9  int         3  
00B014CA  int         3  
00B014CB  int         3  
00B014CC  int         3  
00B014CD  int         3  
00B014CE  int         3  
00B014CF  int         3  
00B014D0  int         3  
00B014D1  int         3  
00B014D2  int         3  
00B014D3  int         3  
00B014D4  int         3  
00B014D5  int         3  
00B014D6  int         3  
00B014D7  int         3  
00B014D8  int         3  
00B014D9  int         3  
00B014DA  int         3  
00B014DB  int         3  
00B014DC  int         3  
00B014DD  int         3  
00B014DE  int         3  
00B014DF  int         3  
00B014E0  int         3  
00B014E1  int         3  
00B014E2  int         3  
00B014E3  int         3  
00B014E4  int         3  
00B014E5  int         3  
00B014E6  int         3  
00B014E7  int         3  
00B014E8  int         3  
00B014E9  int         3  
00B014EA  int         3  
00B014EB  int         3  
00B014EC  int         3  
00B014ED  int         3  
00B014EE  int         3  
00B014EF  int         3  
00B014F0  int         3  
00B014F1  int         3  
00B014F2  int         3  
00B014F3  int         3  
00B014F4  int         3  
00B014F5  int         3  
00B014F6  int         3  
00B014F7  int         3  
00B014F8  int         3  
00B014F9  int         3  
00B014FA  int         3  
00B014FB  int         3  
00B014FC  int         3  
00B014FD  int         3  
00B014FE  int         3  
00B014FF  int         3  
00B01500  int         3  
00B01501  int         3  
00B01502  int         3  
00B01503  int         3  
00B01504  int         3  
00B01505  int         3  
00B01506  int         3  
00B01507  int         3  
00B01508  int         3  
00B01509  int         3  
00B0150A  int         3  
00B0150B  int         3  
00B0150C  int         3  
00B0150D  int         3  
00B0150E  int         3  
00B0150F  int         3  
00B01510  int         3  
00B01511  int         3  
00B01512  int         3  
00B01513  int         3  
00B01514  int         3  
00B01515  int         3  
00B01516  int         3  
00B01517  int         3  
00B01518  int         3  
00B01519  int         3  
00B0151A  int         3  
00B0151B  int         3  
00B0151C  int         3  
00B0151D  int         3  
00B0151E  int         3  
00B0151F  int         3  
00B01520  int         3  
00B01521  int         3  
00B01522  int         3  
00B01523  int         3  
00B01524  int         3  
00B01525  int         3  
00B01526  int         3  
00B01527  int         3  
00B01528  int         3  
00B01529  int         3  
00B0152A  int         3  
00B0152B  int         3  
00B0152C  int         3  
00B0152D  int         3  
00B0152E  int         3  
00B0152F  int         3  
00B01530  int         3  
00B01531  int         3  
00B01532  int         3  
00B01533  int         3  
00B01534  int         3  
00B01535  int         3  
00B01536  int         3  
00B01537  int         3  
00B01538  int         3  
00B01539  int         3  
00B0153A  int         3  
00B0153B  int         3  
00B0153C  int         3  
00B0153D  int         3  
00B0153E  int         3  
00B0153F  int         3  
00B01540  int         3  
00B01541  int         3  
00B01542  int         3  
00B01543  int         3  
00B01544  int         3  
00B01545  int         3  
00B01546  int         3  
00B01547  int         3  
00B01548  int         3  
00B01549  int         3  
00B0154A  int         3  
00B0154B  int         3  
00B0154C  int         3  
00B0154D  int         3  
00B0154E  int         3  
00B0154F  int         3  
00B01550  int         3  
00B01551  int         3  
00B01552  int         3  
00B01553  int         3  
00B01554  int         3  
00B01555  int         3  
00B01556  int         3  
00B01557  int         3  
00B01558  int         3  
00B01559  int         3  
00B0155A  int         3  
00B0155B  int         3  
00B0155C  int         3  
00B0155D  int         3  
00B0155E  int         3  
00B0155F  int         3  
00B01560  int         3  
00B01561  int         3  
00B01562  int         3  
00B01563  int         3  
00B01564  int         3  
00B01565  int         3  
00B01566  int         3  
00B01567  int         3  
00B01568  int         3  
00B01569  int         3  
00B0156A  int         3  
00B0156B  int         3  
00B0156C  int         3  
00B0156D  int         3  
00B0156E  int         3  
00B0156F  int         3  
00B01570  int         3  
00B01571  int         3  
00B01572  int         3  
00B01573  int         3  
00B01574  int         3  
00B01575  int         3  
00B01576  int         3  
00B01577  int         3  
00B01578  int         3  
00B01579  int         3  
00B0157A  int         3  
00B0157B  int         3  
00B0157C  int         3  
00B0157D  int         3  
00B0157E  int         3  
00B0157F  int         3  
00B01580  int         3  
00B01581  int         3  
00B01582  int         3  
00B01583  int         3  
00B01584  int         3  
00B01585  int         3  
00B01586  int         3  
00B01587  int         3  
00B01588  int         3  
00B01589  int         3  
00B0158A  int         3  
00B0158B  int         3  
00B0158C  int         3  
00B0158D  int         3  
00B0158E  int         3  
00B0158F  int         3  
00B01590  int         3  
00B01591  int         3  
00B01592  int         3  
00B01593  int         3  
00B01594  int         3  
00B01595  int         3  
00B01596  int         3  
00B01597  int         3  
00B01598  int         3  
00B01599  int         3  
00B0159A  int         3  
00B0159B  int         3  
00B0159C  int         3  
00B0159D  int         3  
00B0159E  int         3  
00B0159F  int         3  
00B015A0  int         3  
00B015A1  int         3  
00B015A2  int         3  
00B015A3  int         3  
00B015A4  int         3  
00B015A5  int         3  
00B015A6  int         3  
00B015A7  int         3  
00B015A8  int         3  
00B015A9  int         3  
00B015AA  int         3  
00B015AB  int         3  
00B015AC  int         3  
00B015AD  int         3  
00B015AE  int         3  
00B015AF  int         3  
00B015B0  int         3  
00B015B1  int         3  
00B015B2  int         3  
00B015B3  int         3  
00B015B4  int         3  
00B015B5  int         3  
00B015B6  int         3  
00B015B7  int         3  
00B015B8  int         3  
00B015B9  int         3  
00B015BA  int         3  
00B015BB  int         3  
00B015BC  int         3  
00B015BD  int         3  
00B015BE  int         3  
00B015BF  int         3  
00B015C0  int         3  
00B015C1  int         3  
00B015C2  int         3  
00B015C3  int         3  
00B015C4  int         3  
00B015C5  int         3  
00B015C6  int         3  
00B015C7  int         3  
00B015C8  int         3  
00B015C9  int         3  
00B015CA  int         3  
00B015CB  int         3  
00B015CC  int         3  
00B015CD  int         3  
00B015CE  int         3  
00B015CF  int         3  
00B015D0  int         3  
00B015D1  int         3  
00B015D2  int         3  
00B015D3  int         3  
00B015D4  int         3  
00B015D5  int         3  
00B015D6  int         3  
00B015D7  int         3  
00B015D8  int         3  
00B015D9  int         3  
00B015DA  int         3  
00B015DB  int         3  
00B015DC  int         3  
00B015DD  int         3  
00B015DE  int         3  
00B015DF  int         3  
00B015E0  int         3  
00B015E1  int         3  
00B015E2  int         3  
00B015E3  int         3  
00B015E4  int         3  
00B015E5  int         3  
00B015E6  int         3  
00B015E7  int         3  
00B015E8  int         3  
00B015E9  int         3  
00B015EA  int         3  
00B015EB  int         3  
00B015EC  int         3  
00B015ED  int         3  
00B015EE  int         3  
00B015EF  int         3  
00B015F0  int         3  
00B015F1  int         3  
00B015F2  int         3  
00B015F3  int         3  
00B015F4  int         3  
00B015F5  int         3  
00B015F6  int         3  
00B015F7  int         3  
00B015F8  int         3  
00B015F9  int         3  
00B015FA  int         3  
00B015FB  int         3  
00B015FC  int         3  
00B015FD  int         3  
00B015FE  int         3  
00B015FF  int         3  
00B01600  int         3  
00B01601  int         3  
00B01602  int         3  
00B01603  int         3  
00B01604  int         3  
00B01605  int         3  
00B01606  int         3  
00B01607  int         3  
00B01608  int         3  
00B01609  int         3  
00B0160A  int         3  
00B0160B  int         3  
00B0160C  int         3  
00B0160D  int         3  
00B0160E  int         3  
00B0160F  int         3  
00B01610  int         3  
00B01611  int         3  
00B01612  int         3  
00B01613  int         3  
00B01614  int         3  
00B01615  int         3  
00B01616  int         3  
00B01617  int         3  
00B01618  int         3  
00B01619  int         3  
00B0161A  int         3  
00B0161B  int         3  
00B0161C  int         3  
00B0161D  int         3  
00B0161E  int         3  
00B0161F  int         3  
00B01620  int         3  
00B01621  int         3  
00B01622  int         3  
00B01623  int         3  
00B01624  int         3  
00B01625  int         3  
00B01626  int         3  
00B01627  int         3  
00B01628  int         3  
00B01629  int         3  
00B0162A  int         3  
00B0162B  int         3  
00B0162C  int         3  
00B0162D  int         3  
00B0162E  int         3  
00B0162F  int         3  
00B01630  int         3  
00B01631  int         3  
00B01632  int         3  
00B01633  int         3  
00B01634  int         3  
00B01635  int         3  
00B01636  int         3  
00B01637  int         3  
00B01638  int         3  
00B01639  int         3  
00B0163A  int         3  
00B0163B  int         3  
00B0163C  int         3  
00B0163D  int         3  
00B0163E  int         3  
00B0163F  int         3  
00B01640  int         3  
00B01641  int         3  
00B01642  int         3  
00B01643  int         3  
00B01644  int         3  
00B01645  int         3  
00B01646  int         3  
00B01647  int         3  
00B01648  int         3  
00B01649  int         3  
00B0164A  int         3  
00B0164B  int         3  
00B0164C  int         3  
00B0164D  int         3  
00B0164E  int         3  
00B0164F  int         3  
00B01650  int         3  
00B01651  int         3  
00B01652  int         3  
00B01653  int         3  
00B01654  int         3  
00B01655  int         3  
00B01656  int         3  
00B01657  int         3  
00B01658  int         3  
00B01659  int         3  
00B0165A  int         3  
00B0165B  int         3  
00B0165C  int         3  
00B0165D  int         3  
00B0165E  int         3  
00B0165F  int         3  
00B01660  int         3  
00B01661  int         3  
00B01662  int         3  
00B01663  int         3  
00B01664  int         3  
00B01665  int         3  
00B01666  int         3  
00B01667  int         3  
00B01668  int         3  
00B01669  int         3  
00B0166A  int         3  
00B0166B  int         3  
00B0166C  int         3  
00B0166D  int         3  
00B0166E  int         3  
00B0166F  int         3  
00B01670  int         3  
00B01671  int         3  
00B01672  int         3  
00B01673  int         3  
00B01674  int         3  
00B01675  int         3  
00B01676  int         3  
00B01677  int         3  
00B01678  int         3  
00B01679  int         3  
00B0167A  int         3  
00B0167B  int         3  
00B0167C  int         3  
00B0167D  int         3  
00B0167E  int         3  
00B0167F  int         3  
00B01680  int         3  
00B01681  int         3  
00B01682  int         3  
00B01683  int         3  
00B01684  int         3  
00B01685  int         3  
00B01686  int         3  
00B01687  int         3  
00B01688  int         3  
00B01689  int         3  
00B0168A  int         3  
00B0168B  int         3  
00B0168C  int         3  
00B0168D  int         3  
00B0168E  int         3  
00B0168F  int         3  
00B01690  int         3  
00B01691  int         3  
00B01692  int         3  
00B01693  int         3  
00B01694  int         3  
00B01695  int         3  
00B01696  int         3  
00B01697  int         3  
00B01698  int         3  
00B01699  int         3  
00B0169A  int         3  
00B0169B  int         3  
00B0169C  int         3  
00B0169D  int         3  
00B0169E  int         3  
00B0169F  int         3  
00B016A0  int         3  
00B016A1  int         3  
00B016A2  int         3  
00B016A3  int         3  
00B016A4  int         3  
00B016A5  int         3  
00B016A6  int         3  
00B016A7  int         3  
00B016A8  int         3  
00B016A9  int         3  
00B016AA  int         3  
00B016AB  int         3  
00B016AC  int         3  
00B016AD  int         3  
00B016AE  int         3  
00B016AF  int         3  
00B016B0  int         3  
00B016B1  int         3  
00B016B2  int         3  
00B016B3  int         3  
00B016B4  int         3  
00B016B5  int         3  
00B016B6  int         3  
00B016B7  int         3  
00B016B8  int         3  
00B016B9  int         3  
00B016BA  int         3  
00B016BB  int         3  
00B016BC  int         3  
00B016BD  int         3  
00B016BE  int         3  
00B016BF  int         3  
00B016C0  int         3  
00B016C1  int         3  
00B016C2  int         3  
00B016C3  int         3  
00B016C4  int         3  
00B016C5  int         3  
00B016C6  int         3  
00B016C7  int         3  
00B016C8  int         3  
00B016C9  int         3  
00B016CA  int         3  
00B016CB  int         3  
00B016CC  int         3  
00B016CD  int         3  
00B016CE  int         3  
00B016CF  int         3  
00B016D0  int         3  
00B016D1  int         3  
00B016D2  int         3  
00B016D3  int         3  
00B016D4  int         3  
00B016D5  int         3  
00B016D6  int         3  
00B016D7  int         3  
00B016D8  int         3  
00B016D9  int         3  
00B016DA  int         3  
00B016DB  int         3  
00B016DC  int         3  
00B016DD  int         3  
00B016DE  int         3  
00B016DF  int         3  
00B016E0  int         3  
00B016E1  int         3  
00B016E2  int         3  
00B016E3  int         3  
00B016E4  int         3  
00B016E5  int         3  
00B016E6  int         3  
00B016E7  int         3  
00B016E8  int         3  
00B016E9  int         3  
00B016EA  int         3  
00B016EB  int         3  
00B016EC  int         3  
00B016ED  int         3  
00B016EE  int         3  
00B016EF  int         3  
00B016F0  int         3  
00B016F1  int         3  
00B016F2  int         3  
00B016F3  int         3  
00B016F4  int         3  
00B016F5  int         3  
00B016F6  int         3  
00B016F7  int         3  
00B016F8  int         3  
00B016F9  int         3  
00B016FA  int         3  
00B016FB  int         3  
00B016FC  int         3  
00B016FD  int         3  
00B016FE  int         3  
00B016FF  int         3  
00B01700  int         3  
00B01701  int         3  
00B01702  int         3  
00B01703  int         3  
00B01704  int         3  
00B01705  int         3  
00B01706  int         3  
00B01707  int         3  
00B01708  int         3  
00B01709  int         3  
00B0170A  int         3  
00B0170B  int         3  
00B0170C  int         3  
00B0170D  int         3  
00B0170E  int         3  
00B0170F  int         3  
00B01710  int         3  
00B01711  int         3  
00B01712  int         3  
00B01713  int         3  
00B01714  int         3  
00B01715  int         3  
00B01716  int         3  
00B01717  int         3  
00B01718  int         3  
00B01719  int         3  
00B0171A  int         3  
00B0171B  int         3  
00B0171C  int         3  
00B0171D  int         3  
00B0171E  int         3  
00B0171F  int         3  
00B01720  int         3  
00B01721  int         3  
00B01722  int         3  
00B01723  int         3  
00B01724  int         3  
00B01725  int         3  
00B01726  int         3  
00B01727  int         3  
00B01728  int         3  
00B01729  int         3  
00B0172A  int         3  
00B0172B  int         3  
00B0172C  int         3  
00B0172D  int         3  
00B0172E  int         3  
00B0172F  int         3  
00B01730  int         3  
00B01731  int         3  
00B01732  int         3  
00B01733  int         3  
00B01734  int         3  
00B01735  int         3  
00B01736  int         3  
00B01737  int         3  
00B01738  int         3  
00B01739  int         3  
00B0173A  int         3  
00B0173B  int         3  
00B0173C  int         3  
00B0173D  int         3  
00B0173E  int         3  
00B0173F  int         3  
00B01740  push        ebp  
00B01741  mov         ebp,esp  
00B01743  pop         ebp  
00B01744  ret  
00B01745  int         3  
00B01746  int         3  
00B01747  int         3  
00B01748  int         3  
00B01749  int         3  
00B0174A  int         3  
00B0174B  int         3  
00B0174C  int         3  
00B0174D  int         3  
00B0174E  int         3  
00B0174F  int         3  
--- C:\Program Files (x86)\Windows Kits\10\Include\10.0.18362.0\ucrt\corecrt_stdio_config.h 
//
// corecrt_stdio_config.h
//
//      Copyright (c) Microsoft Corporation. All rights reserved.
//
// Per-module <stdio.h> configuration.
//
#pragma once

#include <corecrt.h>

_CRT_BEGIN_C_HEADER

#if !defined _NO_CRT_STDIO_INLINE && !_CRT_FUNCTIONS_REQUIRED
    #define _NO_CRT_STDIO_INLINE
#endif

#if defined _NO_CRT_STDIO_INLINE
    #undef _CRT_STDIO_INLINE
    #define _CRT_STDIO_INLINE
#elif !defined _CRT_STDIO_INLINE
    #define _CRT_STDIO_INLINE __inline
#endif

#if !defined RC_INVOKED // RC has no target architecture
    #if defined _M_IX86
        #define _CRT_INTERNAL_STDIO_SYMBOL_PREFIX "_"
    #elif defined _M_X64 || defined _M_ARM || defined _M_ARM64
        #define _CRT_INTERNAL_STDIO_SYMBOL_PREFIX ""
    #else
        #error Unsupported architecture
    #endif
#endif



// Predefine _CRT_STDIO_ISO_WIDE_SPECIFIERS to use ISO-conforming behavior for
// the wide string printf and scanf functions (%s, %c, and %[] specifiers).
//
// Predefine _CRT_STDIO_LEGACY_WIDE_SPECIFIERS to use VC++ 2013 and earlier behavior for
// the wide string printf and scanf functions (%s, %c, and %[] specifiers).
//
// Predefine _CRT_STDIO_ARBITRARY_WIDE_SPECIFIERS when building code that does
// not use these format specifiers without a length modifier and thus can be
// used with either the legacy (default) or the conforming mode.  (This option
// is intended for use by static libraries).
#if !defined RC_INVOKED // _CRT_STDIO_LEGACY_WIDE_SPECIFIERS et al. are too long for rc
    #if defined _CRT_STDIO_ISO_WIDE_SPECIFIERS
        #if defined _CRT_STDIO_LEGACY_WIDE_SPECIFIERS
            #error _CRT_STDIO_ISO_WIDE_SPECIFIERS and _CRT_STDIO_LEGACY_WIDE_SPECIFIERS cannot be defined together.
        #endif

        #if !defined _M_CEE_PURE
            #pragma comment(lib, "iso_stdio_wide_specifiers")
            #pragma comment(linker, "/include:" _CRT_INTERNAL_STDIO_SYMBOL_PREFIX "__PLEASE_LINK_WITH_iso_stdio_wide_specifiers.lib")
        #endif
    #elif defined _CRT_STDIO_LEGACY_WIDE_SPECIFIERS
        #if !defined _M_CEE_PURE
            #pragma comment(lib, "legacy_stdio_wide_specifiers")
            #pragma comment(linker, "/include:" _CRT_INTERNAL_STDIO_SYMBOL_PREFIX "__PLEASE_LINK_WITH_legacy_stdio_wide_specifiers.lib")
        #endif
    #endif

    #if defined __cplusplus && !defined _CRT_STDIO_ARBITRARY_WIDE_SPECIFIERS
        #ifdef _CRT_STDIO_ISO_WIDE_SPECIFIERS
            #pragma detect_mismatch("_CRT_STDIO_ISO_WIDE_SPECIFIERS", "1")
        #else
            #pragma detect_mismatch("_CRT_STDIO_ISO_WIDE_SPECIFIERS", "0")
        #endif
    #endif
#endif

// If we're compiling mixed managed code, make sure these inline functions are
// compiled as native to ensure that there is only one instance of each of the
// function-local static variables.
#if defined _M_CEE && !defined _M_CEE_PURE
    #pragma managed(push, off)
#endif

#if _CRT_FUNCTIONS_REQUIRED
    // This function must not be inlined into callers to avoid ODR violations.  The
    // static local variable has different names in C and in C++ translation units.
    _Check_return_ _Ret_notnull_
    _CRT_INLINE_PURE_SECURITYCRITICAL_ATTRIBUTE
    __declspec(noinline) __inline unsigned __int64* __CRTDECL __local_stdio_printf_options(void)
    {
00B01750  push        ebp  
00B01751  mov         ebp,esp  
00B01753  sub         esp,0C0h  
00B01759  push        ebx  
00B0175A  push        esi  
00B0175B  push        edi  
00B0175C  lea         edi,[ebp-0C0h]  
00B01762  mov         ecx,30h  
00B01767  mov         eax,0CCCCCCCCh  
00B0176C  rep stos    dword ptr es:[edi]  
00B0176E  mov         ecx,offset _F66CEB67_corecrt_stdio_config@h (0B0C000h)  
00B01773  call        @__CheckForDebuggerJustMyCode@4 (0B01226h)  
        static unsigned __int64 _OptionsStorage;
        return &_OptionsStorage;
00B01778  mov         eax,offset `__local_stdio_printf_options'::`2'::_OptionsStorage (0B0A598h)  
    }
00B0177D  pop         edi  
00B0177E  pop         esi  
00B0177F  pop         ebx  
00B01780  add         esp,0C0h  
00B01786  cmp         ebp,esp  
00B01788  call        __RTC_CheckEsp (0B01230h)  
00B0178D  mov         esp,ebp  
00B0178F  pop         ebp  
00B01790  ret  
--- No source file -------------------------------------------------------------
00B01791  int         3  
00B01792  int         3  
00B01793  int         3  
00B01794  int         3  
00B01795  int         3  
00B01796  int         3  
00B01797  int         3  
00B01798  int         3  
00B01799  int         3  
00B0179A  int         3  
00B0179B  int         3  
00B0179C  int         3  
00B0179D  int         3  
00B0179E  int         3  
00B0179F  int         3  
00B017A0  int         3  
00B017A1  int         3  
00B017A2  int         3  
00B017A3  int         3  
00B017A4  int         3  
00B017A5  int         3  
00B017A6  int         3  
00B017A7  int         3  
00B017A8  int         3  
00B017A9  int         3  
00B017AA  int         3  
00B017AB  int         3  
00B017AC  int         3  
00B017AD  int         3  
00B017AE  int         3  
00B017AF  int         3  
--- C:\Program Files (x86)\Windows Kits\10\Include\10.0.18362.0\ucrt\stdio.h ---
//
// stdio.h
//
//      Copyright (c) Microsoft Corporation. All rights reserved.
//
// The C Standard Library <stdio.h> header.
//
#pragma once
#ifndef _INC_STDIO // include guard for 3rd party interop
#define _INC_STDIO

#include <corecrt.h>
#include <corecrt_wstdio.h>

_CRT_BEGIN_C_HEADER

/* Buffered I/O macros */

#define BUFSIZ  512



/*
 * Default number of supported streams. _NFILE is confusing and obsolete, but
 * supported anyway for backwards compatibility.
 */
#define _NFILE      _NSTREAM_

#define _NSTREAM_   512

/*
 * Number of entries in _iob[] (declared below). Note that _NSTREAM_ must be
 * greater than or equal to _IOB_ENTRIES.
 */
#define _IOB_ENTRIES 3

#define EOF    (-1)

#define _IOFBF 0x0000
#define _IOLBF 0x0040
#define _IONBF 0x0004



#define L_tmpnam   260 // _MAX_PATH
#if __STDC_WANT_SECURE_LIB__
    #define L_tmpnam_s L_tmpnam
#endif



/* Seek method constants */

#define SEEK_CUR    1
#define SEEK_END    2
#define SEEK_SET    0


#define FILENAME_MAX    260
#define FOPEN_MAX       20
#define _SYS_OPEN       20
#define TMP_MAX         _CRT_INT_MAX
#if __STDC_WANT_SECURE_LIB__
    #define TMP_MAX_S       TMP_MAX
    #define _TMP_MAX_S      TMP_MAX
#endif


typedef __int64 fpos_t;



#if _CRT_FUNCTIONS_REQUIRED

    _Check_return_opt_
    _ACRTIMP errno_t __cdecl _get_stream_buffer_pointers(
        _In_      FILE*   _Stream,
        _Out_opt_ char*** _Base,
        _Out_opt_ char*** _Pointer,
        _Out_opt_ int**   _Count
        );


    //-+-+-+-+-+-+-+-+-+-+-+-+-+-+-+-+-+-+-+-+-+-+-+-+-+-+-+-+-+-+-+-+-+-+-+-+-+-+-+
    //
    // Narrow Character Stream I/O Functions
    //
    //-+-+-+-+-+-+-+-+-+-+-+-+-+-+-+-+-+-+-+-+-+-+-+-+-+-+-+-+-+-+-+-+-+-+-+-+-+-+-+
    #if __STDC_WANT_SECURE_LIB__

        _Check_return_wat_
        _ACRTIMP errno_t __cdecl clearerr_s(
            _Inout_ FILE* _Stream
            );

        _Check_return_wat_
        _ACRTIMP errno_t __cdecl fopen_s(
            _Outptr_result_maybenull_ FILE**      _Stream,
            _In_z_                    char const* _FileName,
            _In_z_                    char const* _Mode
            );

        _Check_return_opt_
        _Success_(return != 0)
        _ACRTIMP size_t __cdecl fread_s(
            _Out_writes_bytes_to_(_BufferSize, _ElementSize * _ElementCount)   void*  _Buffer,
            _In_range_(>=, _ElementSize * _ElementCount)                       size_t _BufferSize,
            _In_                                                               size_t _ElementSize,
            _In_                                                               size_t _ElementCount,
            _Inout_                                                            FILE*  _Stream
            );

        _Check_return_wat_
        _ACRTIMP errno_t __cdecl freopen_s(
            _Outptr_result_maybenull_ FILE**      _Stream,
            _In_z_                    char const* _FileName,
            _In_z_                    char const* _Mode,
            _Inout_                   FILE*       _OldStream
            );

        _Success_(return != 0)
        _ACRTIMP char* __cdecl gets_s(
            _Out_writes_z_(_Size) char*   _Buffer,
            _In_                  rsize_t _Size
            );

        _Check_return_wat_
        _ACRTIMP errno_t __cdecl tmpfile_s(
            _Out_opt_ _Deref_post_valid_ FILE** _Stream
            );

        _Success_(return == 0)
        _Check_return_wat_
        _ACRTIMP errno_t __cdecl tmpnam_s(
            _Out_writes_z_(_Size) char*   _Buffer,
            _In_                  rsize_t _Size
            );

    #endif

    _ACRTIMP void __cdecl clearerr(
        _Inout_ FILE* _Stream
        );

    _Success_(return != -1)
    _Check_return_opt_
    _ACRTIMP int __cdecl fclose(
        _Inout_ FILE* _Stream
        );

    _Check_return_opt_
    _ACRTIMP int __cdecl _fcloseall(void);

    _Check_return_
    _ACRTIMP FILE* __cdecl _fdopen(
        _In_   int         _FileHandle,
        _In_z_ char const* _Mode
        );

    _Check_return_
    _ACRTIMP int __cdecl feof(
        _In_ FILE* _Stream
        );

    _Check_return_
    _ACRTIMP int __cdecl ferror(
        _In_ FILE* _Stream
        );

    _Check_return_opt_
    _ACRTIMP int __cdecl fflush(
        _Inout_opt_ FILE* _Stream
        );

    _Success_(return != EOF)
    _Check_return_opt_
    _ACRTIMP int __cdecl fgetc(
        _Inout_ FILE* _Stream
        );

    _Check_return_opt_
    _ACRTIMP int __cdecl _fgetchar(void);

    _Success_(return != EOF)
    _Check_return_opt_
    _ACRTIMP int __cdecl fgetpos(
        _Inout_ FILE*   _Stream,
        _Out_   fpos_t* _Position
        );

    _Success_(return == _Buffer)
    _Check_return_opt_
    _ACRTIMP char* __cdecl fgets(
        _Out_writes_z_(_MaxCount) char* _Buffer,
        _In_                      int   _MaxCount,
        _Inout_                   FILE* _Stream
        );

    _Check_return_
    _ACRTIMP int __cdecl _fileno(
        _In_ FILE* _Stream
        );

    _Check_return_opt_
    _ACRTIMP int __cdecl _flushall(void);

    _Check_return_ _CRT_INSECURE_DEPRECATE(fopen_s)
    _ACRTIMP FILE* __cdecl fopen(
        _In_z_ char const* _FileName,
        _In_z_ char const* _Mode
        );


    _Success_(return != EOF)
    _Check_return_opt_
    _ACRTIMP int __cdecl fputc(
        _In_    int   _Character,
        _Inout_ FILE* _Stream
        );

    _Check_return_opt_
    _ACRTIMP int __cdecl _fputchar(
        _In_ int _Character
        );

    _Success_(return != EOF)
    _Check_return_opt_
    _ACRTIMP int __cdecl fputs(
        _In_z_  char const* _Buffer,
        _Inout_ FILE*       _Stream
        );

    _Check_return_opt_
    _ACRTIMP size_t __cdecl fread(
        _Out_writes_bytes_(_ElementSize * _ElementCount) void*  _Buffer,
        _In_                                             size_t _ElementSize,
        _In_                                             size_t _ElementCount,
        _Inout_                                          FILE*  _Stream
        );

    _Success_(return != 0)
    _Check_return_ _CRT_INSECURE_DEPRECATE(freopen_s)
    _ACRTIMP FILE* __cdecl freopen(
        _In_z_  char const* _FileName,
        _In_z_  char const* _Mode,
        _Inout_ FILE*       _Stream
        );

    _Check_return_
    _ACRTIMP FILE* __cdecl _fsopen(
        _In_z_ char const* _FileName,
        _In_z_ char const* _Mode,
        _In_   int         _ShFlag
        );

    _Success_(return == 0)
    _Check_return_opt_
    _ACRTIMP int __cdecl fsetpos(
        _Inout_ FILE*         _Stream,
        _In_    fpos_t const* _Position
        );

    _Success_(return == 0)
    _Check_return_opt_
    _ACRTIMP int __cdecl fseek(
        _Inout_ FILE* _Stream,
        _In_    long  _Offset,
        _In_    int   _Origin
        );

    _Success_(return == 0)
    _Check_return_opt_
    _ACRTIMP int __cdecl _fseeki64(
        _Inout_ FILE*   _Stream,
        _In_    __int64 _Offset,
        _In_    int     _Origin
        );

    _Success_(return != -1)
    _Check_return_
    _ACRTIMP long __cdecl ftell(
        _Inout_ FILE* _Stream
        );

    _Success_(return != -1)
    _Check_return_
    _ACRTIMP __int64 __cdecl _ftelli64(
        _Inout_ FILE* _Stream
        );

    _Check_return_opt_
    _ACRTIMP size_t __cdecl fwrite(
        _In_reads_bytes_(_ElementSize * _ElementCount) void const* _Buffer,
        _In_                                           size_t      _ElementSize,
        _In_                                           size_t      _ElementCount,
        _Inout_                                        FILE*       _Stream
        );

    _Success_(return != EOF)
    _Check_return_
    _ACRTIMP int __cdecl getc(
        _Inout_ FILE* _Stream
        );

    _Check_return_
    _ACRTIMP int __cdecl getchar(void);

    _Check_return_
    _ACRTIMP int __cdecl _getmaxstdio(void);

    __DEFINE_CPP_OVERLOAD_SECURE_FUNC_0_0(
        char*, gets_s,
        char, _Buffer)

    _Check_return_
    _ACRTIMP int __cdecl _getw(
        _Inout_ FILE* _Stream
        );

    _ACRTIMP void __cdecl perror(
        _In_opt_z_ char const* _ErrorMessage
        );

    #if defined _CRT_USE_WINAPI_FAMILY_DESKTOP_APP

        _Success_(return != -1)
        _Check_return_opt_
        _DCRTIMP int __cdecl _pclose(
            _Inout_ FILE* _Stream
            );

        _Check_return_
        _DCRTIMP FILE* __cdecl _popen(
            _In_z_ char const* _Command,
            _In_z_ char const* _Mode
            );

    #endif

    _Success_(return != EOF)
    _Check_return_opt_
    _ACRTIMP int __cdecl putc(
        _In_    int   _Character,
        _Inout_ FILE* _Stream
        );

    _Check_return_opt_
    _ACRTIMP int __cdecl putchar(
        _In_ int _Character
        );

    _Check_return_opt_
    _ACRTIMP int __cdecl puts(
        _In_z_ char const* _Buffer
        );

    _Success_(return != -1)
    _Check_return_opt_
    _ACRTIMP int __cdecl _putw(
        _In_    int   _Word,
        _Inout_ FILE* _Stream
        );

    _ACRTIMP int __cdecl remove(
        _In_z_ char const* _FileName
        );

    _Check_return_
    _ACRTIMP int __cdecl rename(
        _In_z_ char const* _OldFileName,
        _In_z_ char const* _NewFileName
        );

    _ACRTIMP int __cdecl _unlink(
        _In_z_ char const* _FileName
        );

    #if defined(_CRT_INTERNAL_NONSTDC_NAMES) && _CRT_INTERNAL_NONSTDC_NAMES

        _CRT_NONSTDC_DEPRECATE(_unlink)
        _ACRTIMP int __cdecl unlink(
            _In_z_ char const* _FileName
            );

    #endif

    _ACRTIMP void __cdecl rewind(
        _Inout_ FILE* _Stream
        );

    _Check_return_opt_
    _ACRTIMP int __cdecl _rmtmp(void);

    _CRT_INSECURE_DEPRECATE(setvbuf)
    _ACRTIMP void __cdecl setbuf(
        _Inout_                                             FILE* _Stream,
        _Inout_updates_opt_(BUFSIZ) _Post_readable_size_(0) char* _Buffer
        );

    _Check_return_opt_
    _ACRTIMP int __cdecl _setmaxstdio(
        _In_ int _Maximum
        );

    _Success_(return == 0)
    _Check_return_opt_
    _ACRTIMP int __cdecl setvbuf(
        _Inout_                      FILE*  _Stream,
        _Inout_updates_opt_(_Size)   char*  _Buffer,
        _In_                         int    _Mode,
        _In_                         size_t _Size
        );

    #if defined _DEBUG && defined _CRTDBG_MAP_ALLOC
        #pragma push_macro("_tempnam")
        #undef _tempnam
    #endif

    _Check_return_
    _ACRTIMP _CRTALLOCATOR char* __cdecl _tempnam(
        _In_opt_z_ char const* _DirectoryName,
        _In_opt_z_ char const* _FilePrefix
        );

    #if defined _DEBUG && defined _CRTDBG_MAP_ALLOC
        #pragma pop_macro("_tempnam")
    #endif

    _Check_return_ _CRT_INSECURE_DEPRECATE(tmpfile_s)
    _ACRTIMP FILE* __cdecl tmpfile(void);

    __DEFINE_CPP_OVERLOAD_SECURE_FUNC_0_0(
        _Success_(return == 0)
        errno_t, tmpnam_s,
        _Always_(_Post_z_) char, _Buffer
        )

#pragma warning(push)
#pragma warning(disable: 28726) // __WARNING_BANNED_API_USAGEL2
__DEFINE_CPP_OVERLOAD_STANDARD_FUNC_0_0(
        _Success_(return != 0)
        char*, __RETURN_POLICY_DST, _ACRTIMP, tmpnam,
        _Pre_maybenull_ _Always_(_Post_z_), char, _Buffer
        )
#pragma warning(pop)

    _Success_(return != EOF)
    _Check_return_opt_
    _ACRTIMP int __cdecl ungetc(
        _In_    int   _Character,
        _Inout_ FILE* _Stream
        );



    //-+-+-+-+-+-+-+-+-+-+-+-+-+-+-+-+-+-+-+-+-+-+-+-+-+-+-+-+-+-+-+-+-+-+-+-+-+-+-+
    //
    // I/O Synchronization and _nolock family of I/O functions
    //
    //-+-+-+-+-+-+-+-+-+-+-+-+-+-+-+-+-+-+-+-+-+-+-+-+-+-+-+-+-+-+-+-+-+-+-+-+-+-+-+
    _ACRTIMP void __cdecl _lock_file(
        _Inout_ FILE* _Stream
        );

    _ACRTIMP void __cdecl _unlock_file(
        _Inout_ FILE* _Stream
        );

    _Success_(return != EOF)
    _Check_return_opt_
    _ACRTIMP int __cdecl _fclose_nolock(
        _Inout_ FILE* _Stream
        );

    _Success_(return != EOF)
    _Check_return_opt_
    _ACRTIMP int __cdecl _fflush_nolock(
        _Inout_opt_ FILE* _Stream
        );

    _Success_(return != EOF)
    _Check_return_opt_
    _ACRTIMP int __cdecl _fgetc_nolock(
        _Inout_ FILE* _Stream
        );

    _Success_(return != EOF)
    _Check_return_opt_
    _ACRTIMP int __cdecl _fputc_nolock(
        _In_    int   _Character,
        _Inout_ FILE* _Stream
        );

    _Check_return_opt_
    _ACRTIMP size_t __cdecl _fread_nolock(
        _Out_writes_bytes_(_ElementSize * _ElementCount) void*  _Buffer,
        _In_                                             size_t _ElementSize,
        _In_                                             size_t _ElementCount,
        _Inout_                                          FILE*  _Stream
        );

    _Check_return_opt_
    _Success_(return != 0)
    _ACRTIMP size_t __cdecl _fread_nolock_s(
        _Out_writes_bytes_to_(_BufferSize, _ElementSize * _ElementCount) void*  _Buffer,
        _In_range_(>=, _ElementSize * _ElementCount)                     size_t _BufferSize,
        _In_                                                             size_t _ElementSize,
        _In_                                                             size_t _ElementCount,
        _Inout_                                                          FILE*  _Stream
        );

    _Check_return_opt_
    _ACRTIMP int __cdecl _fseek_nolock(
        _Inout_ FILE* _Stream,
        _In_    long  _Offset,
        _In_    int   _Origin
        );

    _Check_return_opt_
    _ACRTIMP int __cdecl _fseeki64_nolock(
        _Inout_ FILE*   _Stream,
        _In_    __int64 _Offset,
        _In_    int     _Origin
        );

    _Check_return_
    _ACRTIMP long __cdecl _ftell_nolock(
        _Inout_ FILE* _Stream
        );

    _Check_return_
    _ACRTIMP __int64 __cdecl _ftelli64_nolock(
        _Inout_ FILE* _Stream
        );

    _Check_return_opt_
    _ACRTIMP size_t __cdecl _fwrite_nolock(
        _In_reads_bytes_(_ElementSize * _ElementCount) void const* _Buffer,
        _In_                                           size_t      _ElementSize,
        _In_                                           size_t      _ElementCount,
        _Inout_                                        FILE*       _Stream
        );

    _Check_return_opt_
    _ACRTIMP int __cdecl _getc_nolock(
        _Inout_ FILE* _Stream
        );

    _Check_return_opt_
    _ACRTIMP int __cdecl _putc_nolock(
        _In_    int   _Character,
        _Inout_ FILE* _Stream
        );

    _Check_return_opt_
    _ACRTIMP int __cdecl _ungetc_nolock(
        _In_    int   _Character,
        _Inout_ FILE* _Stream
        );

    #define _getchar_nolock()     _getc_nolock(stdin)
    #define _putchar_nolock(_Ch)  _putc_nolock(_Ch, stdout)
    #define _getwchar_nolock()    _getwc_nolock(stdin)
    #define _putwchar_nolock(_Ch) _putwc_nolock(_Ch, stdout)



    #if defined _CRT_DISABLE_PERFCRIT_LOCKS && !defined _DLL
        #define fclose(_Stream)                                           _fclose_nolock(_Stream)
        #define fflush(_Stream)                                           _fflush_nolock(_Stream)
        #define fgetc(_Stream)                                            _fgetc_nolock(_Stream)
        #define fputc(_Ch, _Stream)                                       _fputc_nolock(_Ch, _Stream)
        #define fread(_DstBuf, _ElementSize, _Count, _Stream)             _fread_nolock(_DstBuf, _ElementSize, _Count, _Stream)
        #define fread_s(_DstBuf, _DstSize, _ElementSize, _Count, _Stream) _fread_nolock_s(_DstBuf, _DstSize, _ElementSize, _Count, _Stream)
        #define fseek(_Stream, _Offset, _Origin)                          _fseek_nolock(_Stream, _Offset, _Origin)
        #define _fseeki64(_Stream, _Offset, _Origin)                      _fseeki64_nolock(_Stream, _Offset, _Origin)
        #define ftell(_Stream)                                            _ftell_nolock(_Stream)
        #define _ftelli64(_Stream)                                        _ftelli64_nolock(_Stream)
        #define fwrite(_SrcBuf, _ElementSize, _Count, _Stream)            _fwrite_nolock(_SrcBuf, _ElementSize, _Count, _Stream)
        #define getc(_Stream)                                             _getc_nolock(_Stream)
        #define putc(_Ch, _Stream)                                        _putc_nolock(_Ch, _Stream)
        #define ungetc(_Ch, _Stream)                                      _ungetc_nolock(_Ch, _Stream)
    #endif



    _ACRTIMP int* __cdecl __p__commode(void);

    #ifdef _CRT_DECLARE_GLOBAL_VARIABLES_DIRECTLY
        extern int _commode;
    #else
        #define _commode (*__p__commode())
    #endif



    // Variadic functions are not supported in managed code under /clr
    #if defined _M_CEE_MIXED
        #pragma managed(push, off)
    #endif

    //-+-+-+-+-+-+-+-+-+-+-+-+-+-+-+-+-+-+-+-+-+-+-+-+-+-+-+-+-+-+-+-+-+-+-+-+-+-+-+
    //
    // Narrow Character Formatted Output Functions (Stream)
    //
    //-+-+-+-+-+-+-+-+-+-+-+-+-+-+-+-+-+-+-+-+-+-+-+-+-+-+-+-+-+-+-+-+-+-+-+-+-+-+-+
    _ACRTIMP int __cdecl __stdio_common_vfprintf(
        _In_                                    unsigned __int64 _Options,
        _Inout_                                 FILE*            _Stream,
        _In_z_ _Printf_format_string_params_(2) char const*      _Format,
        _In_opt_                                _locale_t        _Locale,
                                                va_list          _ArgList
        );

    _ACRTIMP int __cdecl __stdio_common_vfprintf_s(
        _In_                                    unsigned __int64 _Options,
        _Inout_                                 FILE*            _Stream,
        _In_z_ _Printf_format_string_params_(2) char const*      _Format,
        _In_opt_                                _locale_t        _Locale,
                                                va_list          _ArgList
        );

    _Success_(return >= 0)
    _ACRTIMP int __cdecl __stdio_common_vfprintf_p(
        _In_                                    unsigned __int64 _Options,
        _Inout_                                 FILE*            _Stream,
        _In_z_ _Printf_format_string_params_(2) char const*      _Format,
        _In_opt_                                _locale_t        _Locale,
                                                va_list          _ArgList
        );

    _Check_return_opt_
    _CRT_STDIO_INLINE int __CRTDECL _vfprintf_l(
        _Inout_  FILE*       const _Stream,
        _In_z_   char const* const _Format,
        _In_opt_ _locale_t   const _Locale,
                 va_list           _ArgList
        )
    #if defined _NO_CRT_STDIO_INLINE
    ;
    #else
    {
00B017B0  push        ebp  
00B017B1  mov         ebp,esp  
00B017B3  sub         esp,0C0h  
00B017B9  push        ebx  
00B017BA  push        esi  
00B017BB  push        edi  
00B017BC  ?? ?????? 
00B017BD  ?? ?????? 
00B017BE  ?? ?????? 
00B017BF  ?? ?????? 
00B017C0  ?? ?????? 
00B017C1  ?? ?????? 
00B017C2  ?? ?????? 
00B017C3  ?? ?????? 
00B017C4  ?? ?????? 
00B017C5  ?? ?????? 
00B017C6  ?? ?????? 
00B017C7  ?? ?????? 
00B017C8  ?? ?????? 
00B017C9  ?? ?????? 
00B017CA  ?? ?????? 
00B017CB  ?? ?????? 
00B017CC  ?? ?????? 
00B017CD  ?? ?????? 
00B017CE  ?? ?????? 
00B017CF  ?? ?????? 
00B017D0  ?? ?????? 
00B017D1  ?? ?????? 
--- C:\Program Files (x86)\Windows Kits\10\Include\10.0.18362.0\ucrt\stdio.h ---
//
// stdio.h
//
//      Copyright (c) Microsoft Corporation. All rights reserved.
//
// The C Standard Library <stdio.h> header.
//
#pragma once
#ifndef _INC_STDIO // include guard for 3rd party interop
#define _INC_STDIO

#include <corecrt.h>
#include <corecrt_wstdio.h>

_CRT_BEGIN_C_HEADER

/* Buffered I/O macros */

#define BUFSIZ  512



/*
 * Default number of supported streams. _NFILE is confusing and obsolete, but
 * supported anyway for backwards compatibility.
 */
#define _NFILE      _NSTREAM_

#define _NSTREAM_   512

/*
 * Number of entries in _iob[] (declared below). Note that _NSTREAM_ must be
 * greater than or equal to _IOB_ENTRIES.
 */
#define _IOB_ENTRIES 3

#define EOF    (-1)

#define _IOFBF 0x0000
#define _IOLBF 0x0040
#define _IONBF 0x0004



#define L_tmpnam   260 // _MAX_PATH
#if __STDC_WANT_SECURE_LIB__
    #define L_tmpnam_s L_tmpnam
#endif



/* Seek method constants */

#define SEEK_CUR    1
#define SEEK_END    2
#define SEEK_SET    0


#define FILENAME_MAX    260
#define FOPEN_MAX       20
#define _SYS_OPEN       20
#define TMP_MAX         _CRT_INT_MAX
#if __STDC_WANT_SECURE_LIB__
    #define TMP_MAX_S       TMP_MAX
    #define _TMP_MAX_S      TMP_MAX
#endif


typedef __int64 fpos_t;



#if _CRT_FUNCTIONS_REQUIRED

    _Check_return_opt_
    _ACRTIMP errno_t __cdecl _get_stream_buffer_pointers(
        _In_      FILE*   _Stream,
        _Out_opt_ char*** _Base,
        _Out_opt_ char*** _Pointer,
        _Out_opt_ int**   _Count
        );


    //-+-+-+-+-+-+-+-+-+-+-+-+-+-+-+-+-+-+-+-+-+-+-+-+-+-+-+-+-+-+-+-+-+-+-+-+-+-+-+
    //
    // Narrow Character Stream I/O Functions
    //
    //-+-+-+-+-+-+-+-+-+-+-+-+-+-+-+-+-+-+-+-+-+-+-+-+-+-+-+-+-+-+-+-+-+-+-+-+-+-+-+
    #if __STDC_WANT_SECURE_LIB__

        _Check_return_wat_
        _ACRTIMP errno_t __cdecl clearerr_s(
            _Inout_ FILE* _Stream
            );

        _Check_return_wat_
        _ACRTIMP errno_t __cdecl fopen_s(
            _Outptr_result_maybenull_ FILE**      _Stream,
            _In_z_                    char const* _FileName,
            _In_z_                    char const* _Mode
            );

        _Check_return_opt_
        _Success_(return != 0)
        _ACRTIMP size_t __cdecl fread_s(
            _Out_writes_bytes_to_(_BufferSize, _ElementSize * _ElementCount)   void*  _Buffer,
            _In_range_(>=, _ElementSize * _ElementCount)                       size_t _BufferSize,
            _In_                                                               size_t _ElementSize,
            _In_                                                               size_t _ElementCount,
            _Inout_                                                            FILE*  _Stream
            );

        _Check_return_wat_
        _ACRTIMP errno_t __cdecl freopen_s(
            _Outptr_result_maybenull_ FILE**      _Stream,
            _In_z_                    char const* _FileName,
            _In_z_                    char const* _Mode,
            _Inout_                   FILE*       _OldStream
            );

        _Success_(return != 0)
        _ACRTIMP char* __cdecl gets_s(
            _Out_writes_z_(_Size) char*   _Buffer,
            _In_                  rsize_t _Size
            );

        _Check_return_wat_
        _ACRTIMP errno_t __cdecl tmpfile_s(
            _Out_opt_ _Deref_post_valid_ FILE** _Stream
            );

        _Success_(return == 0)
        _Check_return_wat_
        _ACRTIMP errno_t __cdecl tmpnam_s(
            _Out_writes_z_(_Size) char*   _Buffer,
            _In_                  rsize_t _Size
            );

    #endif

    _ACRTIMP void __cdecl clearerr(
        _Inout_ FILE* _Stream
        );

    _Success_(return != -1)
    _Check_return_opt_
    _ACRTIMP int __cdecl fclose(
        _Inout_ FILE* _Stream
        );

    _Check_return_opt_
    _ACRTIMP int __cdecl _fcloseall(void);

    _Check_return_
    _ACRTIMP FILE* __cdecl _fdopen(
        _In_   int         _FileHandle,
        _In_z_ char const* _Mode
        );

    _Check_return_
    _ACRTIMP int __cdecl feof(
        _In_ FILE* _Stream
        );

    _Check_return_
    _ACRTIMP int __cdecl ferror(
        _In_ FILE* _Stream
        );

    _Check_return_opt_
    _ACRTIMP int __cdecl fflush(
        _Inout_opt_ FILE* _Stream
        );

    _Success_(return != EOF)
    _Check_return_opt_
    _ACRTIMP int __cdecl fgetc(
        _Inout_ FILE* _Stream
        );

    _Check_return_opt_
    _ACRTIMP int __cdecl _fgetchar(void);

    _Success_(return != EOF)
    _Check_return_opt_
    _ACRTIMP int __cdecl fgetpos(
        _Inout_ FILE*   _Stream,
        _Out_   fpos_t* _Position
        );

    _Success_(return == _Buffer)
    _Check_return_opt_
    _ACRTIMP char* __cdecl fgets(
        _Out_writes_z_(_MaxCount) char* _Buffer,
        _In_                      int   _MaxCount,
        _Inout_                   FILE* _Stream
        );

    _Check_return_
    _ACRTIMP int __cdecl _fileno(
        _In_ FILE* _Stream
        );

    _Check_return_opt_
    _ACRTIMP int __cdecl _flushall(void);

    _Check_return_ _CRT_INSECURE_DEPRECATE(fopen_s)
    _ACRTIMP FILE* __cdecl fopen(
        _In_z_ char const* _FileName,
        _In_z_ char const* _Mode
        );


    _Success_(return != EOF)
    _Check_return_opt_
    _ACRTIMP int __cdecl fputc(
        _In_    int   _Character,
        _Inout_ FILE* _Stream
        );

    _Check_return_opt_
    _ACRTIMP int __cdecl _fputchar(
        _In_ int _Character
        );

    _Success_(return != EOF)
    _Check_return_opt_
    _ACRTIMP int __cdecl fputs(
        _In_z_  char const* _Buffer,
        _Inout_ FILE*       _Stream
        );

    _Check_return_opt_
    _ACRTIMP size_t __cdecl fread(
        _Out_writes_bytes_(_ElementSize * _ElementCount) void*  _Buffer,
        _In_                                             size_t _ElementSize,
        _In_                                             size_t _ElementCount,
        _Inout_                                          FILE*  _Stream
        );

    _Success_(return != 0)
    _Check_return_ _CRT_INSECURE_DEPRECATE(freopen_s)
    _ACRTIMP FILE* __cdecl freopen(
        _In_z_  char const* _FileName,
        _In_z_  char const* _Mode,
        _Inout_ FILE*       _Stream
        );

    _Check_return_
    _ACRTIMP FILE* __cdecl _fsopen(
        _In_z_ char const* _FileName,
        _In_z_ char const* _Mode,
        _In_   int         _ShFlag
        );

    _Success_(return == 0)
    _Check_return_opt_
    _ACRTIMP int __cdecl fsetpos(
        _Inout_ FILE*         _Stream,
        _In_    fpos_t const* _Position
        );

    _Success_(return == 0)
    _Check_return_opt_
    _ACRTIMP int __cdecl fseek(
        _Inout_ FILE* _Stream,
        _In_    long  _Offset,
        _In_    int   _Origin
        );

    _Success_(return == 0)
    _Check_return_opt_
    _ACRTIMP int __cdecl _fseeki64(
        _Inout_ FILE*   _Stream,
        _In_    __int64 _Offset,
        _In_    int     _Origin
        );

    _Success_(return != -1)
    _Check_return_
    _ACRTIMP long __cdecl ftell(
        _Inout_ FILE* _Stream
        );

    _Success_(return != -1)
    _Check_return_
    _ACRTIMP __int64 __cdecl _ftelli64(
        _Inout_ FILE* _Stream
        );

    _Check_return_opt_
    _ACRTIMP size_t __cdecl fwrite(
        _In_reads_bytes_(_ElementSize * _ElementCount) void const* _Buffer,
        _In_                                           size_t      _ElementSize,
        _In_                                           size_t      _ElementCount,
        _Inout_                                        FILE*       _Stream
        );

    _Success_(return != EOF)
    _Check_return_
    _ACRTIMP int __cdecl getc(
        _Inout_ FILE* _Stream
        );

    _Check_return_
    _ACRTIMP int __cdecl getchar(void);

    _Check_return_
    _ACRTIMP int __cdecl _getmaxstdio(void);

    __DEFINE_CPP_OVERLOAD_SECURE_FUNC_0_0(
        char*, gets_s,
        char, _Buffer)

    _Check_return_
    _ACRTIMP int __cdecl _getw(
        _Inout_ FILE* _Stream
        );

    _ACRTIMP void __cdecl perror(
        _In_opt_z_ char const* _ErrorMessage
        );

    #if defined _CRT_USE_WINAPI_FAMILY_DESKTOP_APP

        _Success_(return != -1)
        _Check_return_opt_
        _DCRTIMP int __cdecl _pclose(
            _Inout_ FILE* _Stream
            );

        _Check_return_
        _DCRTIMP FILE* __cdecl _popen(
            _In_z_ char const* _Command,
            _In_z_ char const* _Mode
            );

    #endif

    _Success_(return != EOF)
    _Check_return_opt_
    _ACRTIMP int __cdecl putc(
        _In_    int   _Character,
        _Inout_ FILE* _Stream
        );

    _Check_return_opt_
    _ACRTIMP int __cdecl putchar(
        _In_ int _Character
        );

    _Check_return_opt_
    _ACRTIMP int __cdecl puts(
        _In_z_ char const* _Buffer
        );

    _Success_(return != -1)
    _Check_return_opt_
    _ACRTIMP int __cdecl _putw(
        _In_    int   _Word,
        _Inout_ FILE* _Stream
        );

    _ACRTIMP int __cdecl remove(
        _In_z_ char const* _FileName
        );

    _Check_return_
    _ACRTIMP int __cdecl rename(
        _In_z_ char const* _OldFileName,
        _In_z_ char const* _NewFileName
        );

    _ACRTIMP int __cdecl _unlink(
        _In_z_ char const* _FileName
        );

    #if defined(_CRT_INTERNAL_NONSTDC_NAMES) && _CRT_INTERNAL_NONSTDC_NAMES

        _CRT_NONSTDC_DEPRECATE(_unlink)
        _ACRTIMP int __cdecl unlink(
            _In_z_ char const* _FileName
            );

    #endif

    _ACRTIMP void __cdecl rewind(
        _Inout_ FILE* _Stream
        );

    _Check_return_opt_
    _ACRTIMP int __cdecl _rmtmp(void);

    _CRT_INSECURE_DEPRECATE(setvbuf)
    _ACRTIMP void __cdecl setbuf(
        _Inout_                                             FILE* _Stream,
        _Inout_updates_opt_(BUFSIZ) _Post_readable_size_(0) char* _Buffer
        );

    _Check_return_opt_
    _ACRTIMP int __cdecl _setmaxstdio(
        _In_ int _Maximum
        );

    _Success_(return == 0)
    _Check_return_opt_
    _ACRTIMP int __cdecl setvbuf(
        _Inout_                      FILE*  _Stream,
        _Inout_updates_opt_(_Size)   char*  _Buffer,
        _In_                         int    _Mode,
        _In_                         size_t _Size
        );

    #if defined _DEBUG && defined _CRTDBG_MAP_ALLOC
        #pragma push_macro("_tempnam")
        #undef _tempnam
    #endif

    _Check_return_
    _ACRTIMP _CRTALLOCATOR char* __cdecl _tempnam(
        _In_opt_z_ char const* _DirectoryName,
        _In_opt_z_ char const* _FilePrefix
        );

    #if defined _DEBUG && defined _CRTDBG_MAP_ALLOC
        #pragma pop_macro("_tempnam")
    #endif

    _Check_return_ _CRT_INSECURE_DEPRECATE(tmpfile_s)
    _ACRTIMP FILE* __cdecl tmpfile(void);

    __DEFINE_CPP_OVERLOAD_SECURE_FUNC_0_0(
        _Success_(return == 0)
        errno_t, tmpnam_s,
        _Always_(_Post_z_) char, _Buffer
        )

#pragma warning(push)
#pragma warning(disable: 28726) // __WARNING_BANNED_API_USAGEL2
__DEFINE_CPP_OVERLOAD_STANDARD_FUNC_0_0(
        _Success_(return != 0)
        char*, __RETURN_POLICY_DST, _ACRTIMP, tmpnam,
        _Pre_maybenull_ _Always_(_Post_z_), char, _Buffer
        )
#pragma warning(pop)

    _Success_(return != EOF)
    _Check_return_opt_
    _ACRTIMP int __cdecl ungetc(
        _In_    int   _Character,
        _Inout_ FILE* _Stream
        );



    //-+-+-+-+-+-+-+-+-+-+-+-+-+-+-+-+-+-+-+-+-+-+-+-+-+-+-+-+-+-+-+-+-+-+-+-+-+-+-+
    //
    // I/O Synchronization and _nolock family of I/O functions
    //
    //-+-+-+-+-+-+-+-+-+-+-+-+-+-+-+-+-+-+-+-+-+-+-+-+-+-+-+-+-+-+-+-+-+-+-+-+-+-+-+
    _ACRTIMP void __cdecl _lock_file(
        _Inout_ FILE* _Stream
        );

    _ACRTIMP void __cdecl _unlock_file(
        _Inout_ FILE* _Stream
        );

    _Success_(return != EOF)
    _Check_return_opt_
    _ACRTIMP int __cdecl _fclose_nolock(
        _Inout_ FILE* _Stream
        );

    _Success_(return != EOF)
    _Check_return_opt_
    _ACRTIMP int __cdecl _fflush_nolock(
        _Inout_opt_ FILE* _Stream
        );

    _Success_(return != EOF)
    _Check_return_opt_
    _ACRTIMP int __cdecl _fgetc_nolock(
        _Inout_ FILE* _Stream
        );

    _Success_(return != EOF)
    _Check_return_opt_
    _ACRTIMP int __cdecl _fputc_nolock(
        _In_    int   _Character,
        _Inout_ FILE* _Stream
        );

    _Check_return_opt_
    _ACRTIMP size_t __cdecl _fread_nolock(
        _Out_writes_bytes_(_ElementSize * _ElementCount) void*  _Buffer,
        _In_                                             size_t _ElementSize,
        _In_                                             size_t _ElementCount,
        _Inout_                                          FILE*  _Stream
        );

    _Check_return_opt_
    _Success_(return != 0)
    _ACRTIMP size_t __cdecl _fread_nolock_s(
        _Out_writes_bytes_to_(_BufferSize, _ElementSize * _ElementCount) void*  _Buffer,
        _In_range_(>=, _ElementSize * _ElementCount)                     size_t _BufferSize,
        _In_                                                             size_t _ElementSize,
        _In_                                                             size_t _ElementCount,
        _Inout_                                                          FILE*  _Stream
        );

    _Check_return_opt_
    _ACRTIMP int __cdecl _fseek_nolock(
        _Inout_ FILE* _Stream,
        _In_    long  _Offset,
        _In_    int   _Origin
        );

    _Check_return_opt_
    _ACRTIMP int __cdecl _fseeki64_nolock(
        _Inout_ FILE*   _Stream,
        _In_    __int64 _Offset,
        _In_    int     _Origin
        );

    _Check_return_
    _ACRTIMP long __cdecl _ftell_nolock(
        _Inout_ FILE* _Stream
        );

    _Check_return_
    _ACRTIMP __int64 __cdecl _ftelli64_nolock(
        _Inout_ FILE* _Stream
        );

    _Check_return_opt_
    _ACRTIMP size_t __cdecl _fwrite_nolock(
        _In_reads_bytes_(_ElementSize * _ElementCount) void const* _Buffer,
        _In_                                           size_t      _ElementSize,
        _In_                                           size_t      _ElementCount,
        _Inout_                                        FILE*       _Stream
        );

    _Check_return_opt_
    _ACRTIMP int __cdecl _getc_nolock(
        _Inout_ FILE* _Stream
        );

    _Check_return_opt_
    _ACRTIMP int __cdecl _putc_nolock(
        _In_    int   _Character,
        _Inout_ FILE* _Stream
        );

    _Check_return_opt_
    _ACRTIMP int __cdecl _ungetc_nolock(
        _In_    int   _Character,
        _Inout_ FILE* _Stream
        );

    #define _getchar_nolock()     _getc_nolock(stdin)
    #define _putchar_nolock(_Ch)  _putc_nolock(_Ch, stdout)
    #define _getwchar_nolock()    _getwc_nolock(stdin)
    #define _putwchar_nolock(_Ch) _putwc_nolock(_Ch, stdout)



    #if defined _CRT_DISABLE_PERFCRIT_LOCKS && !defined _DLL
        #define fclose(_Stream)                                           _fclose_nolock(_Stream)
        #define fflush(_Stream)                                           _fflush_nolock(_Stream)
        #define fgetc(_Stream)                                            _fgetc_nolock(_Stream)
        #define fputc(_Ch, _Stream)                                       _fputc_nolock(_Ch, _Stream)
        #define fread(_DstBuf, _ElementSize, _Count, _Stream)             _fread_nolock(_DstBuf, _ElementSize, _Count, _Stream)
        #define fread_s(_DstBuf, _DstSize, _ElementSize, _Count, _Stream) _fread_nolock_s(_DstBuf, _DstSize, _ElementSize, _Count, _Stream)
        #define fseek(_Stream, _Offset, _Origin)                          _fseek_nolock(_Stream, _Offset, _Origin)
        #define _fseeki64(_Stream, _Offset, _Origin)                      _fseeki64_nolock(_Stream, _Offset, _Origin)
        #define ftell(_Stream)                                            _ftell_nolock(_Stream)
        #define _ftelli64(_Stream)                                        _ftelli64_nolock(_Stream)
        #define fwrite(_SrcBuf, _ElementSize, _Count, _Stream)            _fwrite_nolock(_SrcBuf, _ElementSize, _Count, _Stream)
        #define getc(_Stream)                                             _getc_nolock(_Stream)
        #define putc(_Ch, _Stream)                                        _putc_nolock(_Ch, _Stream)
        #define ungetc(_Ch, _Stream)                                      _ungetc_nolock(_Ch, _Stream)
    #endif



    _ACRTIMP int* __cdecl __p__commode(void);

    #ifdef _CRT_DECLARE_GLOBAL_VARIABLES_DIRECTLY
        extern int _commode;
    #else
        #define _commode (*__p__commode())
    #endif



    // Variadic functions are not supported in managed code under /clr
    #if defined _M_CEE_MIXED
        #pragma managed(push, off)
    #endif

    //-+-+-+-+-+-+-+-+-+-+-+-+-+-+-+-+-+-+-+-+-+-+-+-+-+-+-+-+-+-+-+-+-+-+-+-+-+-+-+
    //
    // Narrow Character Formatted Output Functions (Stream)
    //
    //-+-+-+-+-+-+-+-+-+-+-+-+-+-+-+-+-+-+-+-+-+-+-+-+-+-+-+-+-+-+-+-+-+-+-+-+-+-+-+
    _ACRTIMP int __cdecl __stdio_common_vfprintf(
        _In_                                    unsigned __int64 _Options,
        _Inout_                                 FILE*            _Stream,
        _In_z_ _Printf_format_string_params_(2) char const*      _Format,
        _In_opt_                                _locale_t        _Locale,
                                                va_list          _ArgList
        );

    _ACRTIMP int __cdecl __stdio_common_vfprintf_s(
        _In_                                    unsigned __int64 _Options,
        _Inout_                                 FILE*            _Stream,
        _In_z_ _Printf_format_string_params_(2) char const*      _Format,
        _In_opt_                                _locale_t        _Locale,
                                                va_list          _ArgList
        );

    _Success_(return >= 0)
    _ACRTIMP int __cdecl __stdio_common_vfprintf_p(
        _In_                                    unsigned __int64 _Options,
        _Inout_                                 FILE*            _Stream,
        _In_z_ _Printf_format_string_params_(2) char const*      _Format,
        _In_opt_                                _locale_t        _Locale,
                                                va_list          _ArgList
        );

    _Check_return_opt_
    _CRT_STDIO_INLINE int __CRTDECL _vfprintf_l(
        _Inout_  FILE*       const _Stream,
        _In_z_   char const* const _Format,
        _In_opt_ _locale_t   const _Locale,
                 va_list           _ArgList
        )
    #if defined _NO_CRT_STDIO_INLINE
    ;
    #else
    {
00B017D2  add         al,ch  
00B017D4  dec         esi  
00B017D5  cli  
00B017D6  ?? ?????? 
00B017D7  ?? ?????? 
00B017D8  ?? ?????? 
00B017D9  ?? ?????? 
00B017DA  ?? ?????? 
00B017DB  ?? ?????? 
00B017DC  ?? ?????? 
00B017DD  ?? ?????? 
00B017DE  ?? ?????? 
00B017DF  ?? ?????? 
00B017E0  ?? ?????? 
00B017E1  ?? ?????? 
00B017E2  ?? ?????? 
00B017E3  ?? ?????? 
00B017E4  ?? ?????? 
00B017E5  ?? ?????? 
00B017E6  ?? ?????? 
00B017E7  ?? ?????? 
00B017E8  ?? ?????? 
00B017E9  ?? ?????? 
00B017EA  ?? ?????? 
00B017EB  ?? ?????? 
00B017EC  ?? ?????? 
00B017ED  ?? ?????? 
--- C:\Program Files (x86)\Windows Kits\10\Include\10.0.18362.0\ucrt\stdio.h ---
        return __stdio_common_vfprintf(_CRT_INTERNAL_LOCAL_PRINTF_OPTIONS, _Stream, _Format, _Locale, _ArgList);
00B017EE  dec         dword ptr [ebx-74AEFBB8h]  
00B017F4  adc         byte ptr [edx-1],dl  
00B017F7  adc         eax,offset __imp____stdio_common_vfprintf (0B0B170h)  
00B017FC  add         esp,18h  
00B017FF  cmp         esi,esp  
00B01801  call        __RTC_CheckEsp (0B01230h)  
    }
00B01806  pop         edi  
00B01807  pop         esi  
00B01808  pop         ebx  
00B01809  add         esp,0C0h  
00B0180F  cmp         ebp,esp  
00B01811  call        __RTC_CheckEsp (0B01230h)  
00B01816  mov         esp,ebp  
00B01818  pop         ebp  
00B01819  ret  
--- No source file -------------------------------------------------------------
00B0181A  int         3  
00B0181B  int         3  
00B0181C  int         3  
00B0181D  int         3  
00B0181E  int         3  
00B0181F  int         3  
00B01820  int         3  
00B01821  int         3  
00B01822  int         3  
00B01823  int         3  
00B01824  int         3  
00B01825  int         3  
00B01826  int         3  
00B01827  int         3  
00B01828  int         3  
00B01829  int         3  
00B0182A  int         3  
00B0182B  int         3  
00B0182C  int         3  
00B0182D  int         3  
00B0182E  int         3  
00B0182F  int         3  
00B01830  int         3  
00B01831  int         3  
00B01832  int         3  
00B01833  int         3  
00B01834  int         3  
00B01835  int         3  
00B01836  int         3  
00B01837  int         3  
00B01838  int         3  
00B01839  int         3  
00B0183A  int         3  
00B0183B  int         3  
00B0183C  int         3  
00B0183D  int         3  
00B0183E  int         3  
00B0183F  int         3  
--- C:\Users\fv260\Desktop\Informatica\1  II\ARC - Architetture Elaboratori\Elaborati\EL002\EL002_algorithm.c 

// Prints the array
//* this is gonna put elements in the array
void addToArr(int Perm[], int N)
{
00B01840  push        ebp  
00B01841  mov         ebp,esp  
00B01843  sub         esp,0CCh  
00B01849  push        ebx  
00B0184A  push        esi  
00B0184B  push        edi  
00B0184C  lea         edi,[ebp-0CCh]  
00B01852  mov         ecx,33h  
00B01857  mov         eax,0CCCCCCCCh  
00B0185C  rep stos    dword ptr es:[edi]  
00B0185E  mov         ecx,offset _102CD280_EL002_algorithm@c (0B0C003h)  
00B01863  call        @__CheckForDebuggerJustMyCode@4 (0B01226h)  
    for (int i = 0; i < N; i++)
00B01868  mov         dword ptr [ebp-8],0  
00B0186F  jmp         addToArr+3Ah (0B0187Ah)  
00B01871  mov         eax,dword ptr [ebp-8]  
00B01874  add         eax,1  
00B01877  mov         dword ptr [ebp-8],eax  
00B0187A  mov         eax,dword ptr [ebp-8]  
00B0187D  cmp         eax,dword ptr [N]  
00B01880  jge         addToArr+6Bh (0B018ABh)  
    {
        Perm[counter] = Perm[BASE + i];
00B01882  mov         eax,dword ptr [BASE (0B0A5ACh)]  
00B01887  add         eax,dword ptr [ebp-8]  
00B0188A  mov         ecx,dword ptr [counter (0B0A150h)]  
00B01890  mov         edx,dword ptr [Perm]  
00B01893  mov         esi,dword ptr [Perm]  
00B01896  mov         eax,dword ptr [esi+eax*4]  
00B01899  mov         dword ptr [edx+ecx*4],eax  
        counter++;
00B0189C  mov         eax,dword ptr [counter (0B0A150h)]  
00B018A1  add         eax,1  
00B018A4  mov         dword ptr [counter (0B0A150h)],eax  
    }
00B018A9  jmp         addToArr+31h (0B01871h)  
}
00B018AB  pop         edi  
00B018AC  pop         esi  
00B018AD  pop         ebx  
00B018AE  add         esp,0CCh  
00B018B4  cmp         ebp,esp  
00B018B6  call        __RTC_CheckEsp (0B01230h)  
00B018BB  mov         esp,ebp  
00B018BD  pop         ebp  
00B018BE  ret  
--- No source file -------------------------------------------------------------
00B018BF  int         3  
00B018C0  int         3  
00B018C1  int         3  
00B018C2  int         3  
00B018C3  int         3  
00B018C4  int         3  
00B018C5  int         3  
00B018C6  int         3  
00B018C7  int         3  
00B018C8  int         3  
00B018C9  int         3  
00B018CA  int         3  
00B018CB  int         3  
00B018CC  int         3  
00B018CD  int         3  
00B018CE  int         3  
00B018CF  int         3  
00B018D0  int         3  
00B018D1  int         3  
00B018D2  int         3  
00B018D3  int         3  
00B018D4  int         3  
00B018D5  int         3  
00B018D6  int         3  
00B018D7  int         3  
00B018D8  int         3  
00B018D9  int         3  
00B018DA  int         3  
00B018DB  int         3  
00B018DC  int         3  
00B018DD  int         3  
00B018DE  int         3  
00B018DF  int         3  
--- C:\Users\fv260\Desktop\Informatica\1  II\ARC - Architetture Elaboratori\Elaborati\EL002\EL002_algorithm.c 
// C program to print all permutations using
// Heap's algorithm
#include <stdio.h>
#include <stdlib.h>


//NOW, IT WORKS

//TODO: translate this program to assembly code - on VS community

//* making these guys global just for the C blueprint
int N = 4;
int Num;
int counter = 0;        //* this is gonna be ECX
int BASE;

int factorial(int N)
{
00B018E0  push        ebp  
00B018E1  mov         ebp,esp  
00B018E3  sub         esp,0C0h  
00B018E9  push        ebx  
00B018EA  push        esi  
00B018EB  push        edi  
00B018EC  lea         edi,[ebp-0C0h]  
00B018F2  mov         ecx,30h  
00B018F7  mov         eax,0CCCCCCCCh  
00B018FC  rep stos    dword ptr es:[edi]  
00B018FE  mov         ecx,offset _102CD280_EL002_algorithm@c (0B0C003h)  
00B01903  call        @__CheckForDebuggerJustMyCode@4 (0B01226h)  
    if (N == 0)
00B01908  cmp         dword ptr [N],0  
00B0190C  jne         factorial+35h (0B01915h)  
        return 1;
00B0190E  mov         eax,1  
00B01913  jmp         factorial+48h (0B01928h)  

    return (N * factorial(N - 1));
00B01915  mov         eax,dword ptr [N]  
00B01918  sub         eax,1  
00B0191B  push        eax  
00B0191C  call        _factorial (0B0131Bh)  
00B01921  add         esp,4  
00B01924  imul        eax,dword ptr [N]  
}
00B01928  pop         edi  
00B01929  pop         esi  
00B0192A  pop         ebx  
00B0192B  add         esp,0C0h  
00B01931  cmp         ebp,esp  
00B01933  call        __RTC_CheckEsp (0B01230h)  
00B01938  mov         esp,ebp  
00B0193A  pop         ebp  
00B0193B  ret  
--- No source file -------------------------------------------------------------
00B0193C  int         3  
00B0193D  int         3  
00B0193E  int         3  
00B0193F  int         3  
00B01940  int         3  
00B01941  int         3  
00B01942  int         3  
00B01943  int         3  
00B01944  int         3  
00B01945  int         3  
00B01946  int         3  
00B01947  int         3  
00B01948  int         3  
00B01949  int         3  
00B0194A  int         3  
00B0194B  int         3  
00B0194C  int         3  
00B0194D  int         3  
00B0194E  int         3  
00B0194F  int         3  
00B01950  int         3  
00B01951  int         3  
00B01952  int         3  
00B01953  int         3  
00B01954  int         3  
00B01955  int         3  
00B01956  int         3  
00B01957  int         3  
00B01958  int         3  
00B01959  int         3  
00B0195A  int         3  
00B0195B  int         3  
00B0195C  int         3  
00B0195D  int         3  
00B0195E  int         3  
00B0195F  int         3  
--- C:\Users\fv260\Desktop\Informatica\1  II\ARC - Architetture Elaboratori\Elaborati\EL002\EL002_algorithm.c 

// Generating permutation using Heap Algorithm
void heapPermutation(int Perm[], int size, int N)  //size == n (at the beginning)
{
00B01960  push        ebp  
00B01961  mov         ebp,esp  
00B01963  sub         esp,0E4h  
00B01969  push        ebx  
00B0196A  push        esi  
00B0196B  push        edi  
00B0196C  lea         edi,[ebp-0E4h]  
00B01972  mov         ecx,39h  
00B01977  mov         eax,0CCCCCCCCh  
00B0197C  rep stos    dword ptr es:[edi]  
00B0197E  mov         ecx,offset _102CD280_EL002_algorithm@c (0B0C003h)  
00B01983  call        @__CheckForDebuggerJustMyCode@4 (0B01226h)  
    // if size becomes 1 then prints the obtained
    // permutation
    if (size == 1)
00B01988  cmp         dword ptr [size],1  
00B0198C  jne         heapPermutation+43h (0B019A3h)  
    {
        addToArr(Perm, N);
00B0198E  mov         eax,dword ptr [N]  
00B01991  push        eax  
00B01992  mov         ecx,dword ptr [Perm]  
00B01995  push        ecx  
00B01996  call        _addToArr (0B01113h)  
00B0199B  add         esp,8  
        return;
00B0199E  jmp         heapPermutation+10Fh (0B01A6Fh)  
    }

    for (int i = 0; i < size; i++)
00B019A3  mov         dword ptr [ebp-8],0  
00B019AA  jmp         heapPermutation+55h (0B019B5h)  